[INFO] Scanning for projects...
[INFO] 
[INFO] ----------------< org.tenkichannel:weather-api-gateway >----------------
[INFO] Building Tenki Channel :: Weather API Gateway 1.0.0-SNAPSHOT
[INFO] --------------------------------[ jar ]---------------------------------
[INFO] 
[INFO] --- maven-clean-plugin:2.5:clean (default-clean) @ weather-api-gateway ---
[INFO] Deleting /home/ricferna/dev/github.com/ricardozanini/tenkichannel/weather-api-gateway/target
[INFO] 
[INFO] --- maven-resources-plugin:2.6:resources (default-resources) @ weather-api-gateway ---
[INFO] Using 'UTF-8' encoding to copy filtered resources.
[INFO] Copying 0 resource
[INFO] 
[INFO] --- maven-compiler-plugin:3.1:compile (default-compile) @ weather-api-gateway ---
[INFO] Changes detected - recompiling the module!
[INFO] Compiling 7 source files to /home/ricferna/dev/github.com/ricardozanini/tenkichannel/weather-api-gateway/target/classes
[INFO] 
[INFO] --- maven-resources-plugin:2.6:testResources (default-testResources) @ weather-api-gateway ---
[INFO] Using 'UTF-8' encoding to copy filtered resources.
[INFO] Copying 1 resource
[INFO] 
[INFO] --- maven-compiler-plugin:3.1:testCompile (default-testCompile) @ weather-api-gateway ---
[INFO] Changes detected - recompiling the module!
[INFO] Compiling 1 source file to /home/ricferna/dev/github.com/ricardozanini/tenkichannel/weather-api-gateway/target/test-classes
[INFO] 
[INFO] --- maven-surefire-plugin:3.0.0-M3:test (default-test) @ weather-api-gateway ---
[INFO] 
[INFO] -------------------------------------------------------
[INFO]  T E S T S
[INFO] -------------------------------------------------------
[INFO] Running org.tenkichannel.weather.api.gateway.routes.openweathermap.OpenWeatherMapRouteTest
18:30:57 INFO  [io.qu.de.QuarkusAugmentor]] (main) Beginning quarkus augmentation
18:30:57 FINE  [io.ne.ut.in.lo.InternalLoggerFactory]] (build-2) Using java.util.logging as the default logging framework
18:30:57 FINE  [io.ne.ut.ResourceLeakDetector]] (build-2) -Dio.netty.leakDetection.level: simple
18:30:57 FINE  [io.ne.ut.ResourceLeakDetector]] (build-2) -Dio.netty.leakDetection.targetRecords: 4
18:30:57 FINE  [io.ne.ut.in.PlatformDependent0]] (build-2) -Dio.netty.noUnsafe: false
18:30:57 FINE  [io.ne.ut.in.PlatformDependent0]] (build-2) Java version: 8
18:30:57 FINE  [io.ne.ut.in.PlatformDependent0]] (build-2) sun.misc.Unsafe.theUnsafe: available
18:30:57 FINE  [io.ne.ut.in.PlatformDependent0]] (build-2) sun.misc.Unsafe.copyMemory: available
18:30:57 FINE  [io.ne.ut.in.PlatformDependent0]] (build-2) java.nio.Buffer.address: available
18:30:57 FINE  [io.ne.ut.in.PlatformDependent0]] (build-2) direct buffer constructor: available
18:30:57 FINE  [io.ne.ut.in.PlatformDependent0]] (build-2) java.nio.Bits.unaligned: available, true
18:30:57 FINE  [io.ne.ut.in.PlatformDependent0]] (build-2) jdk.internal.misc.Unsafe.allocateUninitializedArray(int): unavailable prior to Java9
18:30:57 FINE  [io.ne.ut.in.PlatformDependent0]] (build-2) java.nio.DirectByteBuffer.<init>(long, int): available
18:30:57 FINE  [io.ne.ut.in.PlatformDependent]] (build-2) sun.misc.Unsafe: available
18:30:57 FINE  [io.ne.ut.in.PlatformDependent]] (build-2) -Dio.netty.tmpdir: /tmp (java.io.tmpdir)
18:30:57 FINE  [io.ne.ut.in.PlatformDependent]] (build-2) -Dio.netty.bitMode: 64 (sun.arch.data.model)
18:30:57 FINE  [io.ne.ut.in.PlatformDependent]] (build-2) -Dio.netty.maxDirectMemory: 5536481280 bytes
18:30:57 FINE  [io.ne.ut.in.PlatformDependent]] (build-2) -Dio.netty.uninitializedArrayAllocationThreshold: -1
18:30:57 FINE  [io.ne.ut.in.CleanerJava6]] (build-2) java.nio.ByteBuffer.cleaner(): available
18:30:57 FINE  [io.ne.ut.in.PlatformDependent]] (build-2) -Dio.netty.noPreferDirect: false
18:30:57 FINE  [io.ne.bu.AbstractByteBuf]] (build-2) -Dio.netty.buffer.checkAccessible: true
18:30:57 FINE  [io.ne.bu.AbstractByteBuf]] (build-2) -Dio.netty.buffer.checkBounds: true
18:30:57 FINE  [io.ne.ut.ResourceLeakDetectorFactory]] (build-2) Loaded default ResourceLeakDetector: io.netty.util.ResourceLeakDetector@4a7e49b6
18:30:58 INFO  [io.qu.ar.pr.BeanProcessor]] (build-9) Found unrecommended usage of private members (use package-private instead) in application beans:
	- @Inject field org.tenkichannel.weather.api.gateway.routes.openweathermap.OpenWeatherDataConfig#apiKey,
	- @Inject field org.tenkichannel.weather.api.gateway.routes.openweathermap.OpenWeatherDataConfig#baseUri
18:30:58 INFO  [io.qu.de.QuarkusAugmentor]] (main) Quarkus augmentation completed in 1077ms
18:30:58 DEBUG [or.ap.ca.su.LRUCacheFactory]] (Camel Thread #0 - LRUCacheFactory) Warming up LRUCache ...
18:30:58 DEBUG [or.ap.ca.su.LRUCacheFactory]] (Camel Thread #0 - LRUCacheFactory) Warming up LRUCache complete in 22 millis
18:30:58 DEBUG [or.ap.ca.im.co.FastTypeConverterRegistry]] (main) Initializing FastTypeConverterRegistry - requires converters to be annotated with @Converter(loader = true)
18:30:58 DEBUG [or.ap.ca.im.co.FastTypeConverterRegistry]] (main) Loading file META-INF/services/org/apache/camel/TypeConverterLoader to retrieve list of type converters, from url: jar:file:/home/ricferna/.m2/repository/org/apache/camel/camel-core/3.0.0-M2/camel-core-3.0.0-M2.jar!/META-INF/services/org/apache/camel/TypeConverterLoader
18:30:58 DEBUG [or.ap.ca.im.co.FastTypeConverterRegistry]] (main) Loading file META-INF/services/org/apache/camel/TypeConverterLoader to retrieve list of type converters, from url: jar:file:/home/ricferna/.m2/repository/org/apache/camel/camel-support/3.0.0-M2/camel-support-3.0.0-M2.jar!/META-INF/services/org/apache/camel/TypeConverterLoader
18:30:58 DEBUG [or.ap.ca.im.co.FastTypeConverterRegistry]] (main) Loading file META-INF/services/org/apache/camel/TypeConverterLoader to retrieve list of type converters, from url: jar:file:/home/ricferna/.m2/repository/org/apache/camel/camel-file/3.0.0-M2/camel-file-3.0.0-M2.jar!/META-INF/services/org/apache/camel/TypeConverterLoader
18:30:58 DEBUG [or.ap.ca.im.co.FastTypeConverterRegistry]] (main) Loading file META-INF/services/org/apache/camel/TypeConverterLoader to retrieve list of type converters, from url: jar:file:/home/ricferna/.m2/repository/org/apache/camel/camel-netty4-http/3.0.0-M2/camel-netty4-http-3.0.0-M2.jar!/META-INF/services/org/apache/camel/TypeConverterLoader
18:30:58 DEBUG [or.ap.ca.im.co.FastTypeConverterRegistry]] (main) Loading file META-INF/services/org/apache/camel/TypeConverterLoader to retrieve list of type converters, from url: jar:file:/home/ricferna/.m2/repository/org/apache/camel/camel-netty4/3.0.0-M2/camel-netty4-3.0.0-M2.jar!/META-INF/services/org/apache/camel/TypeConverterLoader
18:30:58 DEBUG [or.ap.ca.im.co.FastTypeConverterRegistry]] (main) Loading file META-INF/services/org/apache/camel/TypeConverterLoader to retrieve list of type converters, from url: jar:file:/home/ricferna/.m2/repository/org/apache/camel/camel-http-common/3.0.0-M2/camel-http-common-3.0.0-M2.jar!/META-INF/services/org/apache/camel/TypeConverterLoader
18:30:58 DEBUG [or.ap.ca.im.co.FastTypeConverterRegistry]] (main) Resolving TypeConverterLoader: org.apache.camel.component.bean.BeanConverterLoader
18:30:58 DEBUG [or.ap.ca.im.co.FastTypeConverterRegistry]] (main) TypeConverterLoader: org.apache.camel.component.bean.BeanConverterLoader loading converters
18:30:58 DEBUG [or.ap.ca.im.co.FastTypeConverterRegistry]] (main) Resolving TypeConverterLoader: org.apache.camel.converter.stream.StreamCacheConverterLoader
18:30:58 DEBUG [or.ap.ca.im.co.FastTypeConverterRegistry]] (main) TypeConverterLoader: org.apache.camel.converter.stream.StreamCacheConverterLoader loading converters
18:30:58 DEBUG [or.ap.ca.im.co.FastTypeConverterRegistry]] (main) Resolving TypeConverterLoader: org.apache.camel.component.file.GenericFileConverterLoader
18:30:58 DEBUG [or.ap.ca.im.co.FastTypeConverterRegistry]] (main) TypeConverterLoader: org.apache.camel.component.file.GenericFileConverterLoader loading converters
18:30:58 DEBUG [or.ap.ca.im.co.FastTypeConverterRegistry]] (main) Resolving TypeConverterLoader: org.apache.camel.component.netty4.http.NettyHttpConverterLoader
18:30:58 DEBUG [or.ap.ca.im.co.FastTypeConverterRegistry]] (main) TypeConverterLoader: org.apache.camel.component.netty4.http.NettyHttpConverterLoader loading converters
18:30:58 DEBUG [or.ap.ca.im.co.FastTypeConverterRegistry]] (main) Resolving TypeConverterLoader: org.apache.camel.component.netty4.NettyConverterLoader
18:30:58 DEBUG [or.ap.ca.im.co.FastTypeConverterRegistry]] (main) TypeConverterLoader: org.apache.camel.component.netty4.NettyConverterLoader loading converters
18:30:58 DEBUG [or.ap.ca.im.co.FastTypeConverterRegistry]] (main) Resolving TypeConverterLoader: org.apache.camel.http.common.HttpConverterLoader
18:30:58 DEBUG [or.ap.ca.im.co.FastTypeConverterRegistry]] (main) TypeConverterLoader: org.apache.camel.http.common.HttpConverterLoader loading converters
18:30:58 INFO  [or.ap.ca.im.co.FastTypeConverterRegistry]] (main) Type converters loaded (core: 183, classpath: 34)
18:30:58 DEBUG [or.ap.ca.la.si.SimpleLanguage]] (main) Simple language predicate/expression cache size: 1000
18:30:58 DEBUG [or.ap.ca.im.HeadersMapFactoryResolver]] (main) Creating default HeadersMapFactory
18:30:59 INFO  [io.qu.ca.co.ru.su.FastCamelContext]] (main) Apache Camel 3.0.0-M2 (CamelContext: camel-1) is starting
18:30:59 INFO  [or.ap.ca.im.DefaultManagementStrategy]] (main) JMX is disabled
18:30:59 INFO  [io.qu.ca.co.ru.su.FastCamelContext]] (main) StreamCaching is not in use. If using streams then its recommended to enable stream caching. See more details at http://camel.apache.org/stream-caching.html
18:30:59 DEBUG [or.ap.ca.im.DefaultStreamCachingStrategy]] (main) StreamCaching is not enabled
18:30:59 INFO  [io.qu.ca.co.ru.su.FastCamelContext]] (main) Total 0 routes, of which 0 are started
18:30:59 INFO  [io.qu.ca.co.ru.su.FastCamelContext]] (main) Apache Camel 3.0.0-M2 (CamelContext: camel-1) started in 0.007 seconds
18:30:59 INFO  [io.quarkus]] (main) Quarkus 0.15.0 started in 0.524s. Listening on: http://[::]:8081
18:30:59 INFO  [io.quarkus]] (main) Installed features: [camel-core, camel-netty4-http, cdi, resteasy, resteasy-jsonb]
System property jdk.tls.client.cipherSuites is set to 'null'
System property jdk.tls.server.cipherSuites is set to 'null'
Ignoring disabled cipher suite: TLS_DHE_DSS_WITH_AES_256_GCM_SHA384
Ignoring disabled cipher suite: TLS_DH_anon_WITH_AES_256_CBC_SHA
Ignoring disabled cipher suite: TLS_ECDH_ECDSA_WITH_AES_128_CBC_SHA
Ignoring disabled cipher suite: TLS_DH_anon_WITH_AES_256_CBC_SHA256
Ignoring disabled cipher suite: TLS_DHE_DSS_WITH_AES_128_CBC_SHA256
Ignoring disabled cipher suite: TLS_DHE_DSS_WITH_AES_128_GCM_SHA256
Ignoring disabled cipher suite: SSL_RSA_WITH_DES_CBC_SHA
Ignoring disabled cipher suite: SSL_DHE_DSS_EXPORT_WITH_DES40_CBC_SHA
Ignoring disabled cipher suite: TLS_KRB5_WITH_DES_CBC_MD5
Ignoring disabled cipher suite: TLS_ECDH_RSA_WITH_NULL_SHA
Ignoring disabled cipher suite: SSL_DH_anon_EXPORT_WITH_RC4_40_MD5
Ignoring disabled cipher suite: TLS_ECDH_ECDSA_WITH_AES_256_CBC_SHA
Ignoring disabled cipher suite: SSL_DH_anon_WITH_DES_CBC_SHA
Ignoring disabled cipher suite: TLS_DH_anon_WITH_AES_128_CBC_SHA
Ignoring disabled cipher suite: TLS_KRB5_WITH_3DES_EDE_CBC_SHA
Ignoring disabled cipher suite: TLS_ECDHE_RSA_WITH_3DES_EDE_CBC_SHA
Ignoring disabled cipher suite: TLS_KRB5_WITH_DES_CBC_SHA
Ignoring disabled cipher suite: TLS_DHE_DSS_WITH_AES_256_CBC_SHA
Ignoring disabled cipher suite: TLS_KRB5_EXPORT_WITH_DES_CBC_40_MD5
Ignoring disabled cipher suite: TLS_ECDHE_ECDSA_WITH_RC4_128_SHA
Ignoring disabled cipher suite: SSL_DHE_RSA_WITH_DES_CBC_SHA
Ignoring disabled cipher suite: TLS_ECDH_RSA_WITH_AES_128_CBC_SHA
Ignoring disabled cipher suite: TLS_KRB5_WITH_3DES_EDE_CBC_MD5
Ignoring disabled cipher suite: SSL_DH_anon_WITH_RC4_128_MD5
Ignoring disabled cipher suite: TLS_ECDH_ECDSA_WITH_AES_128_GCM_SHA256
Ignoring disabled cipher suite: SSL_DHE_DSS_WITH_3DES_EDE_CBC_SHA
Ignoring disabled cipher suite: TLS_ECDHE_ECDSA_WITH_3DES_EDE_CBC_SHA
Ignoring disabled cipher suite: SSL_DH_anon_WITH_3DES_EDE_CBC_SHA
Ignoring disabled cipher suite: TLS_ECDH_ECDSA_WITH_AES_256_GCM_SHA384
Ignoring disabled cipher suite: TLS_ECDH_anon_WITH_NULL_SHA
Ignoring disabled cipher suite: SSL_RSA_WITH_3DES_EDE_CBC_SHA
Ignoring disabled cipher suite: SSL_DHE_RSA_EXPORT_WITH_DES40_CBC_SHA
Ignoring disabled cipher suite: TLS_ECDH_RSA_WITH_AES_256_CBC_SHA384
Ignoring disabled cipher suite: TLS_ECDH_anon_WITH_RC4_128_SHA
Ignoring disabled cipher suite: SSL_DHE_DSS_WITH_DES_CBC_SHA
Ignoring disabled cipher suite: TLS_ECDH_RSA_WITH_AES_128_CBC_SHA256
Ignoring disabled cipher suite: TLS_KRB5_EXPORT_WITH_RC4_40_SHA
Ignoring disabled cipher suite: TLS_ECDH_ECDSA_WITH_AES_256_CBC_SHA384
Ignoring disabled cipher suite: SSL_RSA_EXPORT_WITH_DES40_CBC_SHA
Ignoring disabled cipher suite: TLS_KRB5_WITH_RC4_128_SHA
Ignoring disabled cipher suite: TLS_ECDH_anon_WITH_AES_256_CBC_SHA
Ignoring disabled cipher suite: TLS_ECDH_ECDSA_WITH_AES_128_CBC_SHA256
Ignoring disabled cipher suite: SSL_RSA_EXPORT_WITH_RC4_40_MD5
Ignoring disabled cipher suite: TLS_KRB5_EXPORT_WITH_DES_CBC_40_SHA
Ignoring disabled cipher suite: TLS_KRB5_EXPORT_WITH_RC4_40_MD5
Ignoring disabled cipher suite: TLS_ECDH_RSA_WITH_AES_256_CBC_SHA
Ignoring disabled cipher suite: TLS_ECDH_anon_WITH_AES_128_CBC_SHA
Ignoring disabled cipher suite: TLS_ECDH_ECDSA_WITH_RC4_128_SHA
Ignoring disabled cipher suite: TLS_KRB5_WITH_RC4_128_MD5
Ignoring disabled cipher suite: TLS_ECDH_RSA_WITH_3DES_EDE_CBC_SHA
Ignoring disabled cipher suite: TLS_ECDH_RSA_WITH_AES_256_GCM_SHA384
Ignoring disabled cipher suite: TLS_ECDH_ECDSA_WITH_3DES_EDE_CBC_SHA
Ignoring disabled cipher suite: SSL_RSA_WITH_RC4_128_SHA
Ignoring disabled cipher suite: TLS_ECDH_ECDSA_WITH_NULL_SHA
Ignoring disabled cipher suite: TLS_ECDH_RSA_WITH_AES_128_GCM_SHA256
Ignoring disabled cipher suite: TLS_ECDH_anon_WITH_3DES_EDE_CBC_SHA
Ignoring disabled cipher suite: TLS_ECDH_RSA_WITH_RC4_128_SHA
Ignoring disabled cipher suite: SSL_DH_anon_EXPORT_WITH_DES40_CBC_SHA
Ignoring disabled cipher suite: SSL_DHE_RSA_WITH_3DES_EDE_CBC_SHA
Ignoring disabled cipher suite: TLS_ECDHE_RSA_WITH_RC4_128_SHA
Ignoring disabled cipher suite: SSL_RSA_WITH_RC4_128_MD5
Ignoring disabled cipher suite: TLS_DH_anon_WITH_AES_128_CBC_SHA256
Ignoring disabled cipher suite: TLS_DHE_DSS_WITH_AES_256_CBC_SHA256
Ignoring disabled cipher suite: SSL_RSA_WITH_NULL_MD5
Ignoring disabled cipher suite: TLS_DH_anon_WITH_AES_128_GCM_SHA256
Ignoring disabled cipher suite: TLS_DHE_DSS_WITH_AES_128_CBC_SHA
Ignoring disabled cipher suite: TLS_DH_anon_WITH_AES_256_GCM_SHA384
Ignoring disabled cipher suite: TLS_DHE_DSS_WITH_AES_256_GCM_SHA384
Ignoring disabled cipher suite: TLS_ECDH_ECDSA_WITH_AES_128_CBC_SHA
Ignoring disabled cipher suite: TLS_DHE_DSS_WITH_AES_128_CBC_SHA256
Ignoring disabled cipher suite: TLS_DHE_DSS_WITH_AES_128_GCM_SHA256
Ignoring disabled cipher suite: TLS_ECDH_ECDSA_WITH_AES_256_CBC_SHA
Ignoring disabled cipher suite: TLS_ECDHE_RSA_WITH_3DES_EDE_CBC_SHA
Ignoring disabled cipher suite: TLS_DHE_DSS_WITH_AES_256_CBC_SHA
Ignoring disabled cipher suite: TLS_ECDH_RSA_WITH_AES_128_CBC_SHA
Ignoring disabled cipher suite: TLS_ECDH_ECDSA_WITH_AES_128_GCM_SHA256
Ignoring disabled cipher suite: SSL_DHE_DSS_WITH_3DES_EDE_CBC_SHA
Ignoring disabled cipher suite: TLS_ECDHE_ECDSA_WITH_3DES_EDE_CBC_SHA
Ignoring disabled cipher suite: TLS_ECDH_ECDSA_WITH_AES_256_GCM_SHA384
Ignoring disabled cipher suite: SSL_RSA_WITH_3DES_EDE_CBC_SHA
Ignoring disabled cipher suite: TLS_ECDH_RSA_WITH_AES_256_CBC_SHA384
Ignoring disabled cipher suite: TLS_ECDH_RSA_WITH_AES_128_CBC_SHA256
Ignoring disabled cipher suite: TLS_ECDH_ECDSA_WITH_AES_256_CBC_SHA384
Ignoring disabled cipher suite: TLS_ECDH_ECDSA_WITH_AES_128_CBC_SHA256
Ignoring disabled cipher suite: TLS_ECDH_RSA_WITH_AES_256_CBC_SHA
Ignoring disabled cipher suite: TLS_ECDH_RSA_WITH_3DES_EDE_CBC_SHA
Ignoring disabled cipher suite: TLS_ECDH_RSA_WITH_AES_256_GCM_SHA384
Ignoring disabled cipher suite: TLS_ECDH_ECDSA_WITH_3DES_EDE_CBC_SHA
Ignoring disabled cipher suite: TLS_ECDH_RSA_WITH_AES_128_GCM_SHA256
Ignoring disabled cipher suite: SSL_DHE_RSA_WITH_3DES_EDE_CBC_SHA
Ignoring disabled cipher suite: TLS_DHE_DSS_WITH_AES_256_CBC_SHA256
Ignoring disabled cipher suite: TLS_DHE_DSS_WITH_AES_128_CBC_SHA
Ignoring disabled cipher suite: TLS_DHE_DSS_WITH_AES_256_GCM_SHA384
Ignoring disabled cipher suite: TLS_ECDH_ECDSA_WITH_AES_128_CBC_SHA
Ignoring disabled cipher suite: TLS_DHE_DSS_WITH_AES_128_CBC_SHA256
Ignoring disabled cipher suite: TLS_DHE_DSS_WITH_AES_128_GCM_SHA256
Ignoring disabled cipher suite: TLS_ECDH_ECDSA_WITH_AES_256_CBC_SHA
Ignoring disabled cipher suite: TLS_ECDHE_RSA_WITH_3DES_EDE_CBC_SHA
Ignoring disabled cipher suite: TLS_DHE_DSS_WITH_AES_256_CBC_SHA
Ignoring disabled cipher suite: TLS_ECDH_RSA_WITH_AES_128_CBC_SHA
Ignoring disabled cipher suite: TLS_ECDH_ECDSA_WITH_AES_128_GCM_SHA256
Ignoring disabled cipher suite: SSL_DHE_DSS_WITH_3DES_EDE_CBC_SHA
Ignoring disabled cipher suite: TLS_ECDHE_ECDSA_WITH_3DES_EDE_CBC_SHA
Ignoring disabled cipher suite: TLS_ECDH_ECDSA_WITH_AES_256_GCM_SHA384
Ignoring disabled cipher suite: SSL_RSA_WITH_3DES_EDE_CBC_SHA
Ignoring disabled cipher suite: TLS_ECDH_RSA_WITH_AES_256_CBC_SHA384
Ignoring disabled cipher suite: TLS_ECDH_RSA_WITH_AES_128_CBC_SHA256
Ignoring disabled cipher suite: TLS_ECDH_ECDSA_WITH_AES_256_CBC_SHA384
Ignoring disabled cipher suite: TLS_ECDH_ECDSA_WITH_AES_128_CBC_SHA256
Ignoring disabled cipher suite: TLS_ECDH_RSA_WITH_AES_256_CBC_SHA
Ignoring disabled cipher suite: TLS_ECDH_RSA_WITH_3DES_EDE_CBC_SHA
Ignoring disabled cipher suite: TLS_ECDH_RSA_WITH_AES_256_GCM_SHA384
Ignoring disabled cipher suite: TLS_ECDH_ECDSA_WITH_3DES_EDE_CBC_SHA
Ignoring disabled cipher suite: TLS_ECDH_RSA_WITH_AES_128_GCM_SHA256
Ignoring disabled cipher suite: SSL_DHE_RSA_WITH_3DES_EDE_CBC_SHA
Ignoring disabled cipher suite: TLS_DHE_DSS_WITH_AES_256_CBC_SHA256
Ignoring disabled cipher suite: TLS_DHE_DSS_WITH_AES_128_CBC_SHA
trustStore is: /etc/pki/java/cacerts
trustStore type is : jks
trustStore provider is : 
init truststore
adding as trusted cert:
  Subject: CN=Hongkong Post Root CA 1, O=Hongkong Post, C=HK
  Issuer:  CN=Hongkong Post Root CA 1, O=Hongkong Post, C=HK
  Algorithm: RSA; Serial number: 0x3e8
  Valid from Thu May 15 02:13:14 BRT 2003 until Mon May 15 01:52:29 BRT 2023

adding as trusted cert:
  Subject: CN=SecureTrust CA, O=SecureTrust Corporation, C=US
  Issuer:  CN=SecureTrust CA, O=SecureTrust Corporation, C=US
  Algorithm: RSA; Serial number: 0xcf08e5c0816a5ad427ff0eb271859d0
  Valid from Tue Nov 07 17:31:18 BRST 2006 until Mon Dec 31 17:40:55 BRST 2029

adding as trusted cert:
  Subject: CN=Entrust Root Certification Authority - EC1, OU="(c) 2012 Entrust, Inc. - for authorized use only", OU=See www.entrust.net/legal-terms, O="Entrust, Inc.", C=US
  Issuer:  CN=Entrust Root Certification Authority - EC1, OU="(c) 2012 Entrust, Inc. - for authorized use only", OU=See www.entrust.net/legal-terms, O="Entrust, Inc.", C=US
  Algorithm: EC; Serial number: 0xa68b79290000000050d091f9
  Valid from Tue Dec 18 13:25:36 BRST 2012 until Fri Dec 18 13:55:36 BRST 2037

adding as trusted cert:
  Subject: CN=DigiCert Global Root CA, OU=www.digicert.com, O=DigiCert Inc, C=US
  Issuer:  CN=DigiCert Global Root CA, OU=www.digicert.com, O=DigiCert Inc, C=US
  Algorithm: RSA; Serial number: 0x83be056904246b1a1756ac95991c74a
  Valid from Thu Nov 09 22:00:00 BRST 2006 until Sun Nov 09 22:00:00 BRST 2031

adding as trusted cert:
  Subject: OU=Security Communication RootCA1, O=SECOM Trust.net, C=JP
  Issuer:  OU=Security Communication RootCA1, O=SECOM Trust.net, C=JP
  Algorithm: RSA; Serial number: 0x0
  Valid from Tue Sep 30 01:20:49 BRT 2003 until Sat Sep 30 01:20:49 BRT 2023

adding as trusted cert:
  Subject: CN=QuoVadis Root CA 2 G3, O=QuoVadis Limited, C=BM
  Issuer:  CN=QuoVadis Root CA 2 G3, O=QuoVadis Limited, C=BM
  Algorithm: RSA; Serial number: 0x445734245b81899b35f2ceb82b3b5ba726f07528
  Valid from Thu Jan 12 16:59:32 BRST 2012 until Sun Jan 12 16:59:32 BRST 2042

adding as trusted cert:
  Subject: CN=Hellenic Academic and Research Institutions RootCA 2015, O=Hellenic Academic and Research Institutions Cert. Authority, L=Athens, C=GR
  Issuer:  CN=Hellenic Academic and Research Institutions RootCA 2015, O=Hellenic Academic and Research Institutions Cert. Authority, L=Athens, C=GR
  Algorithm: RSA; Serial number: 0x0
  Valid from Tue Jul 07 07:11:21 BRT 2015 until Sat Jun 30 07:11:21 BRT 2040

adding as trusted cert:
  Subject: CN=DigiCert Trusted Root G4, OU=www.digicert.com, O=DigiCert Inc, C=US
  Issuer:  CN=DigiCert Trusted Root G4, OU=www.digicert.com, O=DigiCert Inc, C=US
  Algorithm: RSA; Serial number: 0x59b1b579e8e2132e23907bda777755c
  Valid from Thu Aug 01 09:00:00 BRT 2013 until Fri Jan 15 10:00:00 BRST 2038

adding as trusted cert:
  Subject: EMAILADDRESS=sysadmin-rdu@redhat.com, CN=Red Hat IS CA, OU=IS, O="Red Hat, Inc.", L=Raleigh, ST=North Carolina, C=US
  Issuer:  EMAILADDRESS=sysadmin-rdu@redhat.com, CN=Red Hat IS CA, OU=IS, O="Red Hat, Inc.", L=Raleigh, ST=North Carolina, C=US
  Algorithm: RSA; Serial number: 0x1
  Valid from Wed Sep 16 15:45:25 BRT 2009 until Sat Sep 14 15:45:25 BRT 2019

adding as trusted cert:
  Subject: CN=Hellenic Academic and Research Institutions ECC RootCA 2015, O=Hellenic Academic and Research Institutions Cert. Authority, L=Athens, C=GR
  Issuer:  CN=Hellenic Academic and Research Institutions ECC RootCA 2015, O=Hellenic Academic and Research Institutions Cert. Authority, L=Athens, C=GR
  Algorithm: EC; Serial number: 0x0
  Valid from Tue Jul 07 07:37:12 BRT 2015 until Sat Jun 30 07:37:12 BRT 2040

adding as trusted cert:
  Subject: CN=GeoTrust Primary Certification Authority, O=GeoTrust Inc., C=US
  Issuer:  CN=GeoTrust Primary Certification Authority, O=GeoTrust Inc., C=US
  Algorithm: RSA; Serial number: 0x18acb56afd69b6153a636cafdafac4a1
  Valid from Sun Nov 26 22:00:00 BRST 2006 until Wed Jul 16 20:59:59 BRT 2036

adding as trusted cert:
  Subject: OU=Security Communication RootCA2, O="SECOM Trust Systems CO.,LTD.", C=JP
  Issuer:  OU=Security Communication RootCA2, O="SECOM Trust Systems CO.,LTD.", C=JP
  Algorithm: RSA; Serial number: 0x0
  Valid from Fri May 29 02:00:39 BRT 2009 until Tue May 29 02:00:39 BRT 2029

adding as trusted cert:
  Subject: OU=ePKI Root Certification Authority, O="Chunghwa Telecom Co., Ltd.", C=TW
  Issuer:  OU=ePKI Root Certification Authority, O="Chunghwa Telecom Co., Ltd.", C=TW
  Algorithm: RSA; Serial number: 0x15c8bd65475cafb897005ee406d2bc9d
  Valid from Mon Dec 20 00:31:27 BRST 2004 until Wed Dec 20 00:31:27 BRST 2034

adding as trusted cert:
  Subject: CN=AffirmTrust Commercial, O=AffirmTrust, C=US
  Issuer:  CN=AffirmTrust Commercial, O=AffirmTrust, C=US
  Algorithm: RSA; Serial number: 0x7777062726a9b17c
  Valid from Fri Jan 29 12:06:06 BRST 2010 until Tue Dec 31 12:06:06 BRST 2030

adding as trusted cert:
  Subject: CN=Certum Trusted Network CA, OU=Certum Certification Authority, O=Unizeto Technologies S.A., C=PL
  Issuer:  CN=Certum Trusted Network CA, OU=Certum Certification Authority, O=Unizeto Technologies S.A., C=PL
  Algorithm: RSA; Serial number: 0x444c0
  Valid from Wed Oct 22 10:07:37 BRST 2008 until Mon Dec 31 10:07:37 BRST 2029

adding as trusted cert:
  Subject: EMAILADDRESS=infosec@redhat.com, CN=Red Hat IT Root CA, OU=Red Hat IT, O="Red Hat, Inc.", L=Raleigh, ST=North Carolina, C=US
  Issuer:  EMAILADDRESS=infosec@redhat.com, CN=Red Hat IT Root CA, OU=Red Hat IT, O="Red Hat, Inc.", L=Raleigh, ST=North Carolina, C=US
  Algorithm: RSA; Serial number: 0xdba72340faeb6727
  Valid from Mon Jul 06 14:38:11 BRT 2015 until Sat Jun 26 14:38:11 BRT 2055

adding as trusted cert:
  Subject: CN=XRamp Global Certification Authority, O=XRamp Security Services Inc, OU=www.xrampsecurity.com, C=US
  Issuer:  CN=XRamp Global Certification Authority, O=XRamp Security Services Inc, OU=www.xrampsecurity.com, C=US
  Algorithm: RSA; Serial number: 0x50946cec18ead59c4dd597ef758fa0ad
  Valid from Mon Nov 01 14:14:04 BRT 2004 until Mon Jan 01 03:37:19 BRST 2035

adding as trusted cert:
  Subject: CN=EC-ACC, OU=Jerarquia Entitats de Certificacio Catalanes, OU=Vegeu https://www.catcert.net/verarrel (c)03, OU=Serveis Publics de Certificacio, O=Agencia Catalana de Certificacio (NIF Q-0801176-I), C=ES
  Issuer:  CN=EC-ACC, OU=Jerarquia Entitats de Certificacio Catalanes, OU=Vegeu https://www.catcert.net/verarrel (c)03, OU=Serveis Publics de Certificacio, O=Agencia Catalana de Certificacio (NIF Q-0801176-I), C=ES
  Algorithm: RSA; Serial number: 0x-11d4c2142bde21eb579d53fb0c223bff
  Valid from Tue Jan 07 21:00:00 BRST 2003 until Tue Jan 07 20:59:59 BRST 2031

adding as trusted cert:
  Subject: CN=Sonera Class2 CA, O=Sonera, C=FI
  Issuer:  CN=Sonera Class2 CA, O=Sonera, C=FI
  Algorithm: RSA; Serial number: 0x1d
  Valid from Fri Apr 06 04:29:40 BRT 2001 until Tue Apr 06 04:29:40 BRT 2021

adding as trusted cert:
  Subject: CN=GeoTrust Primary Certification Authority - G2, OU=(c) 2007 GeoTrust Inc. - For authorized use only, O=GeoTrust Inc., C=US
  Issuer:  CN=GeoTrust Primary Certification Authority - G2, OU=(c) 2007 GeoTrust Inc. - For authorized use only, O=GeoTrust Inc., C=US
  Algorithm: EC; Serial number: 0x3cb2f4480a00e2feeb243b5e603ec36b
  Valid from Sun Nov 04 22:00:00 BRST 2007 until Mon Jan 18 21:59:59 BRST 2038

adding as trusted cert:
  Subject: CN=Certinomis - Root CA, OU=0002 433998903, O=Certinomis, C=FR
  Issuer:  CN=Certinomis - Root CA, OU=0002 433998903, O=Certinomis, C=FR
  Algorithm: RSA; Serial number: 0x1
  Valid from Mon Oct 21 07:17:18 BRST 2013 until Fri Oct 21 06:17:18 BRT 2033

adding as trusted cert:
  Subject: CN=COMODO ECC Certification Authority, O=COMODO CA Limited, L=Salford, ST=Greater Manchester, C=GB
  Issuer:  CN=COMODO ECC Certification Authority, O=COMODO CA Limited, L=Salford, ST=Greater Manchester, C=GB
  Algorithm: EC; Serial number: 0x1f47afaa62007050544c019e9b63992a
  Valid from Wed Mar 05 21:00:00 BRT 2008 until Mon Jan 18 21:59:59 BRST 2038

adding as trusted cert:
  Subject: CN=ISRG Root X1, O=Internet Security Research Group, C=US
  Issuer:  CN=ISRG Root X1, O=Internet Security Research Group, C=US
  Algorithm: RSA; Serial number: 0x8210cfb0d240e3594463e0bb63828b00
  Valid from Thu Jun 04 08:04:38 BRT 2015 until Mon Jun 04 08:04:38 BRT 2035

adding as trusted cert:
  Subject: CN=DigiCert High Assurance EV Root CA, OU=www.digicert.com, O=DigiCert Inc, C=US
  Issuer:  CN=DigiCert High Assurance EV Root CA, OU=www.digicert.com, O=DigiCert Inc, C=US
  Algorithm: RSA; Serial number: 0x2ac5c266a0b409b8f0b79f2ae462577
  Valid from Thu Nov 09 22:00:00 BRST 2006 until Sun Nov 09 22:00:00 BRST 2031

adding as trusted cert:
  Subject: CN=TrustCor RootCert CA-1, OU=TrustCor Certificate Authority, O=TrustCor Systems S. de R.L., L=Panama City, ST=Panama, C=PA
  Issuer:  CN=TrustCor RootCert CA-1, OU=TrustCor Certificate Authority, O=TrustCor Systems S. de R.L., L=Panama City, ST=Panama, C=PA
  Algorithm: RSA; Serial number: 0xda9bec71f303b019
  Valid from Thu Feb 04 10:32:16 BRST 2016 until Mon Dec 31 15:23:16 BRST 2029

adding as trusted cert:
  Subject: CN=GeoTrust Universal CA, O=GeoTrust Inc., C=US
  Issuer:  CN=GeoTrust Universal CA, O=GeoTrust Inc., C=US
  Algorithm: RSA; Serial number: 0x1
  Valid from Thu Mar 04 02:00:00 BRT 2004 until Sun Mar 04 02:00:00 BRT 2029

adding as trusted cert:
  Subject: CN=GlobalSign, O=GlobalSign, OU=GlobalSign Root CA - R3
  Issuer:  CN=GlobalSign, O=GlobalSign, OU=GlobalSign Root CA - R3
  Algorithm: RSA; Serial number: 0x4000000000121585308a2
  Valid from Wed Mar 18 07:00:00 BRT 2009 until Sun Mar 18 07:00:00 BRT 2029

adding as trusted cert:
  Subject: CN=GeoTrust Universal CA 2, O=GeoTrust Inc., C=US
  Issuer:  CN=GeoTrust Universal CA 2, O=GeoTrust Inc., C=US
  Algorithm: RSA; Serial number: 0x1
  Valid from Thu Mar 04 02:00:00 BRT 2004 until Sun Mar 04 02:00:00 BRT 2029

adding as trusted cert:
  Subject: CN=Baltimore CyberTrust Root, OU=CyberTrust, O=Baltimore, C=IE
  Issuer:  CN=Baltimore CyberTrust Root, OU=CyberTrust, O=Baltimore, C=IE
  Algorithm: RSA; Serial number: 0x20000b9
  Valid from Fri May 12 15:46:00 BRT 2000 until Mon May 12 20:59:00 BRT 2025

adding as trusted cert:
  Subject: CN=AAA Certificate Services, O=Comodo CA Limited, L=Salford, ST=Greater Manchester, C=GB
  Issuer:  CN=AAA Certificate Services, O=Comodo CA Limited, L=Salford, ST=Greater Manchester, C=GB
  Algorithm: RSA; Serial number: 0x1
  Valid from Wed Dec 31 22:00:00 BRST 2003 until Sun Dec 31 21:59:59 BRST 2028

adding as trusted cert:
  Subject: OU=Starfield Class 2 Certification Authority, O="Starfield Technologies, Inc.", C=US
  Issuer:  OU=Starfield Class 2 Certification Authority, O="Starfield Technologies, Inc.", C=US
  Algorithm: RSA; Serial number: 0x0
  Valid from Tue Jun 29 14:39:16 BRT 2004 until Thu Jun 29 14:39:16 BRT 2034

adding as trusted cert:
  Subject: CN=Certificate Authority, OU=prod, O=Red Hat
  Issuer:  CN=Intermediate Certificate Authority, OU=prod, O=Red Hat
  Algorithm: RSA; Serial number: 0x6
  Valid from Wed Oct 14 14:47:56 BRT 2015 until Tue Oct 09 14:47:56 BRT 2035

adding as trusted cert:
  Subject: CN=VeriSign Class 3 Public Primary Certification Authority - G3, OU="(c) 1999 VeriSign, Inc. - For authorized use only", OU=VeriSign Trust Network, O="VeriSign, Inc.", C=US
  Issuer:  CN=VeriSign Class 3 Public Primary Certification Authority - G3, OU="(c) 1999 VeriSign, Inc. - For authorized use only", OU=VeriSign Trust Network, O="VeriSign, Inc.", C=US
  Algorithm: RSA; Serial number: 0x9b7e0649a33e62b9d5ee90487129ef57
  Valid from Thu Sep 30 21:00:00 BRT 1999 until Wed Jul 16 20:59:59 BRT 2036

adding as trusted cert:
  Subject: OU=AC RAIZ FNMT-RCM, O=FNMT-RCM, C=ES
  Issuer:  OU=AC RAIZ FNMT-RCM, O=FNMT-RCM, C=ES
  Algorithm: RSA; Serial number: 0x5d938d306736c8061d1ac754846907
  Valid from Wed Oct 29 13:59:56 BRST 2008 until Mon Dec 31 22:00:00 BRST 2029

adding as trusted cert:
  Subject: CN=GlobalSign Root CA, OU=Root CA, O=GlobalSign nv-sa, C=BE
  Issuer:  CN=GlobalSign Root CA, OU=Root CA, O=GlobalSign nv-sa, C=BE
  Algorithm: RSA; Serial number: 0x40000000001154b5ac394
  Valid from Tue Sep 01 09:00:00 BRT 1998 until Fri Jan 28 10:00:00 BRST 2028

adding as trusted cert:
  Subject: CN=AffirmTrust Networking, O=AffirmTrust, C=US
  Issuer:  CN=AffirmTrust Networking, O=AffirmTrust, C=US
  Algorithm: RSA; Serial number: 0x7c4f04391cd4992d
  Valid from Fri Jan 29 12:08:24 BRST 2010 until Tue Dec 31 12:08:24 BRST 2030

adding as trusted cert:
  Subject: CN=TWCA Global Root CA, OU=Root CA, O=TAIWAN-CA, C=TW
  Issuer:  CN=TWCA Global Root CA, OU=Root CA, O=TAIWAN-CA, C=TW
  Algorithm: RSA; Serial number: 0xcbe
  Valid from Wed Jun 27 03:28:33 BRT 2012 until Tue Dec 31 13:59:59 BRST 2030

adding as trusted cert:
  Subject: CN=AffirmTrust Premium, O=AffirmTrust, C=US
  Issuer:  CN=AffirmTrust Premium, O=AffirmTrust, C=US
  Algorithm: RSA; Serial number: 0x6d8c1446b1a60aee
  Valid from Fri Jan 29 12:10:36 BRST 2010 until Mon Dec 31 12:10:36 BRST 2040

adding as trusted cert:
  Subject: CN=*.192.168.42.54.nip.io
  Issuer:  CN=openshift-signer@1550677177
  Algorithm: RSA; Serial number: 0xc
  Valid from Fri Mar 01 12:30:39 BRT 2019 until Sun Feb 28 12:30:40 BRT 2021

adding as trusted cert:
  Subject: O=Government Root Certification Authority, C=TW
  Issuer:  O=Government Root Certification Authority, C=TW
  Algorithm: RSA; Serial number: 0x1f9d595ad72fc20644a5800869e35ef6
  Valid from Thu Dec 05 11:23:33 BRST 2002 until Sun Dec 05 11:23:33 BRST 2032

adding as trusted cert:
  Subject: CN=GeoTrust Primary Certification Authority - G3, OU=(c) 2008 GeoTrust Inc. - For authorized use only, O=GeoTrust Inc., C=US
  Issuer:  CN=GeoTrust Primary Certification Authority - G3, OU=(c) 2008 GeoTrust Inc. - For authorized use only, O=GeoTrust Inc., C=US
  Algorithm: RSA; Serial number: 0x15ac6e9419b2794b41f627a9c3180f1f
  Valid from Tue Apr 01 21:00:00 BRT 2008 until Tue Dec 01 21:59:59 BRST 2037

adding as trusted cert:
  Subject: CN=TWCA Root Certification Authority, OU=Root CA, O=TAIWAN-CA, C=TW
  Issuer:  CN=TWCA Root Certification Authority, OU=Root CA, O=TAIWAN-CA, C=TW
  Algorithm: RSA; Serial number: 0x1
  Valid from Thu Aug 28 04:24:33 BRT 2008 until Tue Dec 31 13:59:59 BRST 2030

adding as trusted cert:
  Subject: CN=LuxTrust Global Root 2, O=LuxTrust S.A., C=LU
  Issuer:  CN=LuxTrust Global Root 2, O=LuxTrust S.A., C=LU
  Algorithm: RSA; Serial number: 0xa7ea6df4b449eda6a24859ee6b815d3167fbbb1
  Valid from Thu Mar 05 10:21:57 BRT 2015 until Mon Mar 05 10:21:57 BRT 2035

adding as trusted cert:
  Subject: CN=Chambers of Commerce Root - 2008, O=AC Camerfirma S.A., SERIALNUMBER=A82743287, L=Madrid (see current address at www.camerfirma.com/address), C=EU
  Issuer:  CN=Chambers of Commerce Root - 2008, O=AC Camerfirma S.A., SERIALNUMBER=A82743287, L=Madrid (see current address at www.camerfirma.com/address), C=EU
  Algorithm: RSA; Serial number: 0xa3da427ea4b1aeda
  Valid from Fri Aug 01 09:29:50 BRT 2008 until Sat Jul 31 09:29:50 BRT 2038

adding as trusted cert:
  Subject: C=DE, O=Atos, CN=Atos TrustedRoot 2011
  Issuer:  C=DE, O=Atos, CN=Atos TrustedRoot 2011
  Algorithm: RSA; Serial number: 0x5c33cb622c5fb332
  Valid from Thu Jul 07 11:58:30 BRT 2011 until Tue Dec 31 21:59:59 BRST 2030

adding as trusted cert:
  Subject: CN=SSL.com EV Root Certification Authority RSA R2, O=SSL Corporation, L=Houston, ST=Texas, C=US
  Issuer:  CN=SSL.com EV Root Certification Authority RSA R2, O=SSL Corporation, L=Houston, ST=Texas, C=US
  Algorithm: RSA; Serial number: 0x56b629cd34bc78f6
  Valid from Wed May 31 15:14:37 BRT 2017 until Fri May 30 15:14:37 BRT 2042

adding as trusted cert:
  Subject: CN=SwissSign Silver CA - G2, O=SwissSign AG, C=CH
  Issuer:  CN=SwissSign Silver CA - G2, O=SwissSign AG, C=CH
  Algorithm: RSA; Serial number: 0x4f1bd42f54bb2f4b
  Valid from Wed Oct 25 05:32:46 BRT 2006 until Sat Oct 25 05:32:46 BRT 2036

adding as trusted cert:
  Subject: CN=SecureSign RootCA11, O="Japan Certification Services, Inc.", C=JP
  Issuer:  CN=SecureSign RootCA11, O="Japan Certification Services, Inc.", C=JP
  Algorithm: RSA; Serial number: 0x1
  Valid from Wed Apr 08 01:56:47 BRT 2009 until Sun Apr 08 01:56:47 BRT 2029

adding as trusted cert:
  Subject: CN=SSL.com Root Certification Authority ECC, O=SSL Corporation, L=Houston, ST=Texas, C=US
  Issuer:  CN=SSL.com Root Certification Authority ECC, O=SSL Corporation, L=Houston, ST=Texas, C=US
  Algorithm: EC; Serial number: 0x75e6dfcbc1685ba8
  Valid from Fri Feb 12 16:14:03 BRST 2016 until Tue Feb 12 16:14:03 BRST 2041

adding as trusted cert:
  Subject: CN=Entrust Root Certification Authority - G2, OU="(c) 2009 Entrust, Inc. - for authorized use only", OU=See www.entrust.net/legal-terms, O="Entrust, Inc.", C=US
  Issuer:  CN=Entrust Root Certification Authority - G2, OU="(c) 2009 Entrust, Inc. - for authorized use only", OU=See www.entrust.net/legal-terms, O="Entrust, Inc.", C=US
  Algorithm: RSA; Serial number: 0x4a538c28
  Valid from Tue Jul 07 14:25:54 BRT 2009 until Sat Dec 07 15:55:54 BRST 2030

adding as trusted cert:
  Subject: CN=DigiCert Assured ID Root CA, OU=www.digicert.com, O=DigiCert Inc, C=US
  Issuer:  CN=DigiCert Assured ID Root CA, OU=www.digicert.com, O=DigiCert Inc, C=US
  Algorithm: RSA; Serial number: 0xce7e0e517d846fe8fe560fc1bf03039
  Valid from Thu Nov 09 22:00:00 BRST 2006 until Sun Nov 09 22:00:00 BRST 2031

adding as trusted cert:
  Subject: OU=Go Daddy Class 2 Certification Authority, O="The Go Daddy Group, Inc.", C=US
  Issuer:  OU=Go Daddy Class 2 Certification Authority, O="The Go Daddy Group, Inc.", C=US
  Algorithm: RSA; Serial number: 0x0
  Valid from Tue Jun 29 14:06:20 BRT 2004 until Thu Jun 29 14:06:20 BRT 2034

adding as trusted cert:
  Subject: CN=TrustCor RootCert CA-2, OU=TrustCor Certificate Authority, O=TrustCor Systems S. de R.L., L=Panama City, ST=Panama, C=PA
  Issuer:  CN=TrustCor RootCert CA-2, OU=TrustCor Certificate Authority, O=TrustCor Systems S. de R.L., L=Panama City, ST=Panama, C=PA
  Algorithm: RSA; Serial number: 0x25a1dfca33cb5902
  Valid from Thu Feb 04 10:32:23 BRST 2016 until Sun Dec 31 15:26:39 BRST 2034

adding as trusted cert:
  Subject: CN=TUBITAK Kamu SM SSL Kok Sertifikasi - Surum 1, OU=Kamu Sertifikasyon Merkezi - Kamu SM, O=Turkiye Bilimsel ve Teknolojik Arastirma Kurumu - TUBITAK, L=Gebze - Kocaeli, C=TR
  Issuer:  CN=TUBITAK Kamu SM SSL Kok Sertifikasi - Surum 1, OU=Kamu Sertifikasyon Merkezi - Kamu SM, O=Turkiye Bilimsel ve Teknolojik Arastirma Kurumu - TUBITAK, L=Gebze - Kocaeli, C=TR
  Algorithm: RSA; Serial number: 0x1
  Valid from Mon Nov 25 06:25:55 BRST 2013 until Sun Oct 25 05:25:55 BRT 2043

adding as trusted cert:
  Subject: CN=Secure Global CA, O=SecureTrust Corporation, C=US
  Issuer:  CN=Secure Global CA, O=SecureTrust Corporation, C=US
  Algorithm: RSA; Serial number: 0x75622a4e8d48a894df413c8f0f8eaa5
  Valid from Tue Nov 07 17:42:28 BRST 2006 until Mon Dec 31 17:52:06 BRST 2029

adding as trusted cert:
  Subject: CN=AddTrust External CA Root, OU=AddTrust External TTP Network, O=AddTrust AB, C=SE
  Issuer:  CN=AddTrust External CA Root, OU=AddTrust External TTP Network, O=AddTrust AB, C=SE
  Algorithm: RSA; Serial number: 0x1
  Valid from Tue May 30 07:48:38 BRT 2000 until Sat May 30 07:48:38 BRT 2020

adding as trusted cert:
  Subject: CN=T-TeleSec GlobalRoot Class 3, OU=T-Systems Trust Center, O=T-Systems Enterprise Services GmbH, C=DE
  Issuer:  CN=T-TeleSec GlobalRoot Class 3, OU=T-Systems Trust Center, O=T-Systems Enterprise Services GmbH, C=DE
  Algorithm: RSA; Serial number: 0x1
  Valid from Wed Oct 01 07:29:56 BRT 2008 until Sat Oct 01 20:59:59 BRT 2033

adding as trusted cert:
  Subject: CN=DigiCert Global Root G3, OU=www.digicert.com, O=DigiCert Inc, C=US
  Issuer:  CN=DigiCert Global Root G3, OU=www.digicert.com, O=DigiCert Inc, C=US
  Algorithm: EC; Serial number: 0x55556bcf25ea43535c3a40fd5ab4572
  Valid from Thu Aug 01 09:00:00 BRT 2013 until Fri Jan 15 10:00:00 BRST 2038

adding as trusted cert:
  Subject: CN=TrustCor ECA-1, OU=TrustCor Certificate Authority, O=TrustCor Systems S. de R.L., L=Panama City, ST=Panama, C=PA
  Issuer:  CN=TrustCor ECA-1, OU=TrustCor Certificate Authority, O=TrustCor Systems S. de R.L., L=Panama City, ST=Panama, C=PA
  Algorithm: RSA; Serial number: 0x84822c5f1c62d040
  Valid from Thu Feb 04 10:32:33 BRST 2016 until Mon Dec 31 15:28:07 BRST 2029

adding as trusted cert:
  Subject: CN=Class 2 Primary CA, O=Certplus, C=FR
  Issuer:  CN=Class 2 Primary CA, O=Certplus, C=FR
  Algorithm: RSA; Serial number: 0x85bd4bf3d8dae369f694d75fc3a54423
  Valid from Wed Jul 07 14:05:00 BRT 1999 until Sat Jul 06 20:59:59 BRT 2019

adding as trusted cert:
  Subject: CN=OISTE WISeKey Global Root GA CA, OU=OISTE Foundation Endorsed, OU=Copyright (c) 2005, O=WISeKey, C=CH
  Issuer:  CN=OISTE WISeKey Global Root GA CA, OU=OISTE Foundation Endorsed, OU=Copyright (c) 2005, O=WISeKey, C=CH
  Algorithm: RSA; Serial number: 0x413d72c7f46b1f81437df1d22854df9a
  Valid from Sun Dec 11 14:03:44 BRST 2005 until Fri Dec 11 14:09:51 BRST 2037

adding as trusted cert:
  Subject: CN=GeoTrust Global CA, O=GeoTrust Inc., C=US
  Issuer:  CN=GeoTrust Global CA, O=GeoTrust Inc., C=US
  Algorithm: RSA; Serial number: 0x23456
  Valid from Tue May 21 01:00:00 BRT 2002 until Sat May 21 01:00:00 BRT 2022

adding as trusted cert:
  Subject: CN=Network Solutions Certificate Authority, O=Network Solutions L.L.C., C=US
  Issuer:  CN=Network Solutions Certificate Authority, O=Network Solutions L.L.C., C=US
  Algorithm: RSA; Serial number: 0x57cb336fc25c16e6471617e3903168e0
  Valid from Thu Nov 30 22:00:00 BRST 2006 until Mon Dec 31 21:59:59 BRST 2029

adding as trusted cert:
  Subject: CN=CFCA EV ROOT, O=China Financial Certification Authority, C=CN
  Issuer:  CN=CFCA EV ROOT, O=China Financial Certification Authority, C=CN
  Algorithm: RSA; Serial number: 0x184accd6
  Valid from Wed Aug 08 00:07:01 BRT 2012 until Mon Dec 31 01:07:01 BRST 2029

adding as trusted cert:
  Subject: CN=GlobalSign, O=GlobalSign, OU=GlobalSign ECC Root CA - R5
  Issuer:  CN=GlobalSign, O=GlobalSign, OU=GlobalSign ECC Root CA - R5
  Algorithm: EC; Serial number: 0x605949e0262ebb55f90a778a71f94ad86c
  Valid from Mon Nov 12 22:00:00 BRST 2012 until Tue Jan 19 01:14:07 BRST 2038

adding as trusted cert:
  Subject: CN=Hellenic Academic and Research Institutions RootCA 2011, O=Hellenic Academic and Research Institutions Cert. Authority, C=GR
  Issuer:  CN=Hellenic Academic and Research Institutions RootCA 2011, O=Hellenic Academic and Research Institutions Cert. Authority, C=GR
  Algorithm: RSA; Serial number: 0x0
  Valid from Tue Dec 06 11:49:52 BRST 2011 until Mon Dec 01 11:49:52 BRST 2031

adding as trusted cert:
  Subject: CN=Certum Trusted Network CA 2, OU=Certum Certification Authority, O=Unizeto Technologies S.A., C=PL
  Issuer:  CN=Certum Trusted Network CA 2, OU=Certum Certification Authority, O=Unizeto Technologies S.A., C=PL
  Algorithm: RSA; Serial number: 0x21d6d04a4f250fc93237fcaa5e128de9
  Valid from Thu Oct 06 05:39:56 BRT 2011 until Sat Oct 06 05:39:56 BRT 2046

adding as trusted cert:
  Subject: CN=Starfield Root Certificate Authority - G2, O="Starfield Technologies, Inc.", L=Scottsdale, ST=Arizona, C=US
  Issuer:  CN=Starfield Root Certificate Authority - G2, O="Starfield Technologies, Inc.", L=Scottsdale, ST=Arizona, C=US
  Algorithm: RSA; Serial number: 0x0
  Valid from Mon Aug 31 21:00:00 BRT 2009 until Thu Dec 31 21:59:59 BRST 2037

adding as trusted cert:
  Subject: CN=IdenTrust Public Sector Root CA 1, O=IdenTrust, C=US
  Issuer:  CN=IdenTrust Public Sector Root CA 1, O=IdenTrust, C=US
  Algorithm: RSA; Serial number: 0xa0142800000014523cf467c00000002
  Valid from Thu Jan 16 15:53:32 BRST 2014 until Mon Jan 16 15:53:32 BRST 2034

adding as trusted cert:
  Subject: CN=Entrust.net Certification Authority (2048), OU=(c) 1999 Entrust.net Limited, OU=www.entrust.net/CPS_2048 incorp. by ref. (limits liab.), O=Entrust.net
  Issuer:  CN=Entrust.net Certification Authority (2048), OU=(c) 1999 Entrust.net Limited, OU=www.entrust.net/CPS_2048 incorp. by ref. (limits liab.), O=Entrust.net
  Algorithm: RSA; Serial number: 0x3863def8
  Valid from Fri Dec 24 15:50:51 BRST 1999 until Tue Jul 24 11:15:12 BRT 2029

adding as trusted cert:
  Subject: CN=Staat der Nederlanden Root CA - G3, O=Staat der Nederlanden, C=NL
  Issuer:  CN=Staat der Nederlanden Root CA - G3, O=Staat der Nederlanden, C=NL
  Algorithm: RSA; Serial number: 0x98a239
  Valid from Thu Nov 14 09:28:42 BRST 2013 until Mon Nov 13 21:00:00 BRST 2028

adding as trusted cert:
  Subject: CN=TeliaSonera Root CA v1, O=TeliaSonera
  Issuer:  CN=TeliaSonera Root CA v1, O=TeliaSonera
  Algorithm: RSA; Serial number: 0x95be16a0f72e46f17b398272fa8bcd96
  Valid from Thu Oct 18 10:00:50 BRST 2007 until Mon Oct 18 09:00:50 BRT 2032

adding as trusted cert:
  Subject: CN=thawte Primary Root CA, OU="(c) 2006 thawte, Inc. - For authorized use only", OU=Certification Services Division, O="thawte, Inc.", C=US
  Issuer:  CN=thawte Primary Root CA, OU="(c) 2006 thawte, Inc. - For authorized use only", OU=Certification Services Division, O="thawte, Inc.", C=US
  Algorithm: RSA; Serial number: 0x344ed55720d5edec49f42fce37db2b6d
  Valid from Thu Nov 16 22:00:00 BRST 2006 until Wed Jul 16 20:59:59 BRT 2036

adding as trusted cert:
  Subject: CN=Go Daddy Root Certificate Authority - G2, O="GoDaddy.com, Inc.", L=Scottsdale, ST=Arizona, C=US
  Issuer:  CN=Go Daddy Root Certificate Authority - G2, O="GoDaddy.com, Inc.", L=Scottsdale, ST=Arizona, C=US
  Algorithm: RSA; Serial number: 0x0
  Valid from Mon Aug 31 21:00:00 BRT 2009 until Thu Dec 31 21:59:59 BRST 2037

adding as trusted cert:
  Subject: CN=Visa eCommerce Root, OU=Visa International Service Association, O=VISA, C=US
  Issuer:  CN=Visa eCommerce Root, OU=Visa International Service Association, O=VISA, C=US
  Algorithm: RSA; Serial number: 0x1386354d1d3f06f2c1f96505d5901c62
  Valid from Tue Jun 25 23:18:36 BRT 2002 until Thu Jun 23 21:16:12 BRT 2022

adding as trusted cert:
  Subject: EMAILADDRESS=eng-ops@redhat.com, CN=Engineering Services, OU=Red Hat Engineering, O="Red Hat, Inc.", ST=North Carolina, C=US
  Issuer:  EMAILADDRESS=sysadmin-rdu@redhat.com, CN=Red Hat IS CA, OU=IS, O="Red Hat, Inc.", L=Raleigh, ST=North Carolina, C=US
  Algorithm: RSA; Serial number: 0x9f6
  Valid from Thu Oct 10 00:35:57 BRT 2013 until Sun Oct 08 00:35:57 BRT 2023

adding as trusted cert:
  Subject: CN=Intermediate Certificate Authority, OU=prod, O=Red Hat
  Issuer:  EMAILADDRESS=infosec@redhat.com, CN=Red Hat IT Root CA, OU=Red Hat IT, O="Red Hat, Inc.", L=Raleigh, ST=North Carolina, C=US
  Algorithm: RSA; Serial number: 0x14
  Valid from Wed Oct 14 14:29:07 BRT 2015 until Fri Oct 06 14:29:07 BRT 2045

adding as trusted cert:
  Subject: CN=VeriSign Class 3 Public Primary Certification Authority - G4, OU="(c) 2007 VeriSign, Inc. - For authorized use only", OU=VeriSign Trust Network, O="VeriSign, Inc.", C=US
  Issuer:  CN=VeriSign Class 3 Public Primary Certification Authority - G4, OU="(c) 2007 VeriSign, Inc. - For authorized use only", OU=VeriSign Trust Network, O="VeriSign, Inc.", C=US
  Algorithm: EC; Serial number: 0x2f80fe238c0e220f486712289187acb3
  Valid from Sun Nov 04 22:00:00 BRST 2007 until Mon Jan 18 21:59:59 BRST 2038

adding as trusted cert:
  Subject: CN=Staat der Nederlanden EV Root CA, O=Staat der Nederlanden, C=NL
  Issuer:  CN=Staat der Nederlanden EV Root CA, O=Staat der Nederlanden, C=NL
  Algorithm: RSA; Serial number: 0x98968d
  Valid from Wed Dec 08 09:19:29 BRST 2010 until Thu Dec 08 09:10:28 BRST 2022

adding as trusted cert:
  Subject: CN=Entrust Root Certification Authority, OU="(c) 2006 Entrust, Inc.", OU=www.entrust.net/CPS is incorporated by reference, O="Entrust, Inc.", C=US
  Issuer:  CN=Entrust Root Certification Authority, OU="(c) 2006 Entrust, Inc.", OU=www.entrust.net/CPS is incorporated by reference, O="Entrust, Inc.", C=US
  Algorithm: RSA; Serial number: 0x456b5054
  Valid from Mon Nov 27 18:23:42 BRST 2006 until Fri Nov 27 18:53:42 BRST 2026

adding as trusted cert:
  Subject: CN=DigiCert Assured ID Root G2, OU=www.digicert.com, O=DigiCert Inc, C=US
  Issuer:  CN=DigiCert Assured ID Root G2, OU=www.digicert.com, O=DigiCert Inc, C=US
  Algorithm: RSA; Serial number: 0xb931c3ad63967ea6723bfc3af9af44b
  Valid from Thu Aug 01 09:00:00 BRT 2013 until Fri Jan 15 10:00:00 BRST 2038

adding as trusted cert:
  Subject: CN=SSL.com Root Certification Authority RSA, O=SSL Corporation, L=Houston, ST=Texas, C=US
  Issuer:  CN=SSL.com Root Certification Authority RSA, O=SSL Corporation, L=Houston, ST=Texas, C=US
  Algorithm: RSA; Serial number: 0x7b2c9bd316803299
  Valid from Fri Feb 12 15:39:39 BRST 2016 until Tue Feb 12 15:39:39 BRST 2041

adding as trusted cert:
  Subject: CN=Amazon Root CA 4, O=Amazon, C=US
  Issuer:  CN=Amazon Root CA 4, O=Amazon, C=US
  Algorithm: EC; Serial number: 0x66c9fd7c1bb104c2943e5717b7b2cc81ac10e
  Valid from Mon May 25 21:00:00 BRT 2015 until Fri May 25 21:00:00 BRT 2040

adding as trusted cert:
  Subject: CN=GlobalSign, O=GlobalSign, OU=GlobalSign Root CA - R6
  Issuer:  CN=GlobalSign, O=GlobalSign, OU=GlobalSign Root CA - R6
  Algorithm: RSA; Serial number: 0x45e6bb038333c3856548e6ff4551
  Valid from Tue Dec 09 22:00:00 BRST 2014 until Sat Dec 09 22:00:00 BRST 2034

adding as trusted cert:
  Subject: CN=CA Disig Root R2, O=Disig a.s., L=Bratislava, C=SK
  Issuer:  CN=CA Disig Root R2, O=Disig a.s., L=Bratislava, C=SK
  Algorithm: RSA; Serial number: 0x92b888dbb08ac163
  Valid from Thu Jul 19 06:15:30 BRT 2012 until Sat Jul 19 06:15:30 BRT 2042

adding as trusted cert:
  Subject: CN=OISTE WISeKey Global Root GC CA, OU=OISTE Foundation Endorsed, O=WISeKey, C=CH
  Issuer:  CN=OISTE WISeKey Global Root GC CA, OU=OISTE Foundation Endorsed, O=WISeKey, C=CH
  Algorithm: EC; Serial number: 0x212a560caeda0cab4045bf2ba22d3aea
  Valid from Tue May 09 06:48:34 BRT 2017 until Fri May 09 06:58:33 BRT 2042

adding as trusted cert:
  Subject: CN=DST Root CA X3, O=Digital Signature Trust Co.
  Issuer:  CN=DST Root CA X3, O=Digital Signature Trust Co.
  Algorithm: RSA; Serial number: 0x44afb080d6a327ba893039862ef8406b
  Valid from Sat Sep 30 18:12:19 BRT 2000 until Thu Sep 30 11:01:15 BRT 2021

adding as trusted cert:
  Subject: CN=Buypass Class 2 Root CA, O=Buypass AS-983163327, C=NO
  Issuer:  CN=Buypass Class 2 Root CA, O=Buypass AS-983163327, C=NO
  Algorithm: RSA; Serial number: 0x2
  Valid from Tue Oct 26 06:38:03 BRST 2010 until Fri Oct 26 05:38:03 BRT 2040

adding as trusted cert:
  Subject: CN=D-TRUST Root Class 3 CA 2 EV 2009, O=D-Trust GmbH, C=DE
  Issuer:  CN=D-TRUST Root Class 3 CA 2 EV 2009, O=D-Trust GmbH, C=DE
  Algorithm: RSA; Serial number: 0x983f4
  Valid from Thu Nov 05 06:50:46 BRST 2009 until Mon Nov 05 06:50:46 BRST 2029

adding as trusted cert:
  Subject: CN=DigiCert Assured ID Root G3, OU=www.digicert.com, O=DigiCert Inc, C=US
  Issuer:  CN=DigiCert Assured ID Root G3, OU=www.digicert.com, O=DigiCert Inc, C=US
  Algorithm: EC; Serial number: 0xba15afa1ddfa0b54944afcd24a06cec
  Valid from Thu Aug 01 09:00:00 BRT 2013 until Fri Jan 15 10:00:00 BRST 2038

adding as trusted cert:
  Subject: CN=SwissSign Gold CA - G2, O=SwissSign AG, C=CH
  Issuer:  CN=SwissSign Gold CA - G2, O=SwissSign AG, C=CH
  Algorithm: RSA; Serial number: 0xbb401c43f55e4fb0
  Valid from Wed Oct 25 05:30:35 BRT 2006 until Sat Oct 25 05:30:35 BRT 2036

adding as trusted cert:
  Subject: CN=USERTrust ECC Certification Authority, O=The USERTRUST Network, L=Jersey City, ST=New Jersey, C=US
  Issuer:  CN=USERTrust ECC Certification Authority, O=The USERTRUST Network, L=Jersey City, ST=New Jersey, C=US
  Algorithm: EC; Serial number: 0x5c8b99c55a94c5d27156decd8980cc26
  Valid from Sun Jan 31 22:00:00 BRST 2010 until Mon Jan 18 21:59:59 BRST 2038

adding as trusted cert:
  Subject: OU=certSIGN ROOT CA, O=certSIGN, C=RO
  Issuer:  OU=certSIGN ROOT CA, O=certSIGN, C=RO
  Algorithm: RSA; Serial number: 0x200605167002
  Valid from Tue Jul 04 14:20:04 BRT 2006 until Fri Jul 04 14:20:04 BRT 2031

adding as trusted cert:
  Subject: CN=QuoVadis Root CA 2, O=QuoVadis Limited, C=BM
  Issuer:  CN=QuoVadis Root CA 2, O=QuoVadis Limited, C=BM
  Algorithm: RSA; Serial number: 0x509
  Valid from Fri Nov 24 16:27:00 BRST 2006 until Mon Nov 24 16:23:33 BRST 2031

adding as trusted cert:
  Subject: CN=IdenTrust Commercial Root CA 1, O=IdenTrust, C=US
  Issuer:  CN=IdenTrust Commercial Root CA 1, O=IdenTrust, C=US
  Algorithm: RSA; Serial number: 0xa0142800000014523c844b500000002
  Valid from Thu Jan 16 16:12:23 BRST 2014 until Mon Jan 16 16:12:23 BRST 2034

adding as trusted cert:
  Subject: CN=Deutsche Telekom Root CA 2, OU=T-TeleSec Trust Center, O=Deutsche Telekom AG, C=DE
  Issuer:  CN=Deutsche Telekom Root CA 2, OU=T-TeleSec Trust Center, O=Deutsche Telekom AG, C=DE
  Algorithm: RSA; Serial number: 0x26
  Valid from Fri Jul 09 09:11:00 BRT 1999 until Tue Jul 09 20:59:00 BRT 2019

adding as trusted cert:
  Subject: CN=D-TRUST Root Class 3 CA 2 2009, O=D-Trust GmbH, C=DE
  Issuer:  CN=D-TRUST Root Class 3 CA 2 2009, O=D-Trust GmbH, C=DE
  Algorithm: RSA; Serial number: 0x983f3
  Valid from Thu Nov 05 06:35:58 BRST 2009 until Mon Nov 05 06:35:58 BRST 2029

adding as trusted cert:
  Subject: CN=QuoVadis Root CA 1 G3, O=QuoVadis Limited, C=BM
  Issuer:  CN=QuoVadis Root CA 1 G3, O=QuoVadis Limited, C=BM
  Algorithm: RSA; Serial number: 0x78585f2ead2c194be3370735341328b596d46593
  Valid from Thu Jan 12 15:27:44 BRST 2012 until Sun Jan 12 15:27:44 BRST 2042

adding as trusted cert:
  Subject: CN=USERTrust RSA Certification Authority, O=The USERTRUST Network, L=Jersey City, ST=New Jersey, C=US
  Issuer:  CN=USERTrust RSA Certification Authority, O=The USERTRUST Network, L=Jersey City, ST=New Jersey, C=US
  Algorithm: RSA; Serial number: 0x1fd6d30fca3ca51a81bbc640e35032d
  Valid from Sun Jan 31 22:00:00 BRST 2010 until Mon Jan 18 21:59:59 BRST 2038

adding as trusted cert:
  Subject: CN=Izenpe.com, O=IZENPE S.A., C=ES
  Issuer:  CN=Izenpe.com, O=IZENPE S.A., C=ES
  Algorithm: RSA; Serial number: 0xb0b75a16485fbfe1cbf58bd719e67d
  Valid from Thu Dec 13 11:08:28 BRST 2007 until Sun Dec 13 06:27:25 BRST 2037

adding as trusted cert:
  Subject: CN=GlobalSign, O=GlobalSign, OU=GlobalSign Root CA - R2
  Issuer:  CN=GlobalSign, O=GlobalSign, OU=GlobalSign Root CA - R2
  Algorithm: RSA; Serial number: 0x400000000010f8626e60d
  Valid from Fri Dec 15 06:00:00 BRST 2006 until Wed Dec 15 06:00:00 BRST 2021

adding as trusted cert:
  Subject: CN=VeriSign Class 3 Public Primary Certification Authority - G5, OU="(c) 2006 VeriSign, Inc. - For authorized use only", OU=VeriSign Trust Network, O="VeriSign, Inc.", C=US
  Issuer:  CN=VeriSign Class 3 Public Primary Certification Authority - G5, OU="(c) 2006 VeriSign, Inc. - For authorized use only", OU=VeriSign Trust Network, O="VeriSign, Inc.", C=US
  Algorithm: RSA; Serial number: 0x18dad19e267de8bb4a2158cdcc6b3b4a
  Valid from Tue Nov 07 22:00:00 BRST 2006 until Wed Jul 16 20:59:59 BRT 2036

adding as trusted cert:
  Subject: CN=QuoVadis Root CA 3, O=QuoVadis Limited, C=BM
  Issuer:  CN=QuoVadis Root CA 3, O=QuoVadis Limited, C=BM
  Algorithm: RSA; Serial number: 0x5c6
  Valid from Fri Nov 24 17:11:23 BRST 2006 until Mon Nov 24 17:06:44 BRST 2031

adding as trusted cert:
  Subject: CN=Starfield Services Root Certificate Authority - G2, O="Starfield Technologies, Inc.", L=Scottsdale, ST=Arizona, C=US
  Issuer:  CN=Starfield Services Root Certificate Authority - G2, O="Starfield Technologies, Inc.", L=Scottsdale, ST=Arizona, C=US
  Algorithm: RSA; Serial number: 0x0
  Valid from Mon Aug 31 21:00:00 BRT 2009 until Thu Dec 31 21:59:59 BRST 2037

adding as trusted cert:
  Subject: CN=OISTE WISeKey Global Root GB CA, OU=OISTE Foundation Endorsed, O=WISeKey, C=CH
  Issuer:  CN=OISTE WISeKey Global Root GB CA, OU=OISTE Foundation Endorsed, O=WISeKey, C=CH
  Algorithm: RSA; Serial number: 0x76b1205274f0858746b3f8231af6c2c0
  Valid from Mon Dec 01 13:00:32 BRST 2014 until Thu Dec 01 13:10:31 BRST 2039

adding as trusted cert:
  Subject: CN=Amazon Root CA 3, O=Amazon, C=US
  Issuer:  CN=Amazon Root CA 3, O=Amazon, C=US
  Algorithm: EC; Serial number: 0x66c9fd5749736663f3b0b9ad9e89e7603f24a
  Valid from Mon May 25 21:00:00 BRT 2015 until Fri May 25 21:00:00 BRT 2040

adding as trusted cert:
  Subject: CN=QuoVadis Root CA 3 G3, O=QuoVadis Limited, C=BM
  Issuer:  CN=QuoVadis Root CA 3 G3, O=QuoVadis Limited, C=BM
  Algorithm: RSA; Serial number: 0x2ef59b0228a7db7affd5a3a9eebd03a0cf126a1d
  Valid from Thu Jan 12 18:26:32 BRST 2012 until Sun Jan 12 18:26:32 BRST 2042

adding as trusted cert:
  Subject: EMAILADDRESS=info@e-szigno.hu, CN=Microsec e-Szigno Root CA 2009, O=Microsec Ltd., L=Budapest, C=HU
  Issuer:  EMAILADDRESS=info@e-szigno.hu, CN=Microsec e-Szigno Root CA 2009, O=Microsec Ltd., L=Budapest, C=HU
  Algorithm: RSA; Serial number: 0xc27e43044e473f19
  Valid from Tue Jun 16 08:30:18 BRT 2009 until Sun Dec 30 09:30:18 BRST 2029

adding as trusted cert:
  Subject: CN=NetLock Arany (Class Gold) Ftanstvny, OU=Tanstvnykiadk (Certification Services), O=NetLock Kft., L=Budapest, C=HU
  Issuer:  CN=NetLock Arany (Class Gold) Ftanstvny, OU=Tanstvnykiadk (Certification Services), O=NetLock Kft., L=Budapest, C=HU
  Algorithm: RSA; Serial number: 0x49412ce40010
  Valid from Thu Dec 11 13:08:21 BRST 2008 until Wed Dec 06 13:08:21 BRST 2028

adding as trusted cert:
  Subject: CN=Actalis Authentication Root CA, O=Actalis S.p.A./03358520967, L=Milan, C=IT
  Issuer:  CN=Actalis Authentication Root CA, O=Actalis S.p.A./03358520967, L=Milan, C=IT
  Algorithm: RSA; Serial number: 0x570a119742c4e3cc
  Valid from Thu Sep 22 08:22:02 BRT 2011 until Sun Sep 22 08:22:02 BRT 2030

adding as trusted cert:
  Subject: CN=Autoridad de Certificacion Firmaprofesional CIF A62634068, C=ES
  Issuer:  CN=Autoridad de Certificacion Firmaprofesional CIF A62634068, C=ES
  Algorithm: RSA; Serial number: 0x53ec3beefbb2485f
  Valid from Wed May 20 05:38:15 BRT 2009 until Tue Dec 31 06:38:15 BRST 2030

adding as trusted cert:
  Subject: CN=Certigna, O=Dhimyotis, C=FR
  Issuer:  CN=Certigna, O=Dhimyotis, C=FR
  Algorithm: RSA; Serial number: 0xfedce3010fc948ff
  Valid from Fri Jun 29 12:13:05 BRT 2007 until Tue Jun 29 12:13:05 BRT 2027

adding as trusted cert:
  Subject: CN=E-Tugra Certification Authority, OU=E-Tugra Sertifikasyon Merkezi, O=E-Tura EBG Biliim Teknolojileri ve Hizmetleri A.., L=Ankara, C=TR
  Issuer:  CN=E-Tugra Certification Authority, OU=E-Tugra Sertifikasyon Merkezi, O=E-Tura EBG Biliim Teknolojileri ve Hizmetleri A.., L=Ankara, C=TR
  Algorithm: RSA; Serial number: 0x6a683e9c519bcb53
  Valid from Tue Mar 05 09:09:48 BRT 2013 until Fri Mar 03 09:09:48 BRT 2023

adding as trusted cert:
  Subject: C=ES, O=ACCV, OU=PKIACCV, CN=ACCVRAIZ1
  Issuer:  C=ES, O=ACCV, OU=PKIACCV, CN=ACCVRAIZ1
  Algorithm: RSA; Serial number: 0x5ec3b7a6437fa4e0
  Valid from Thu May 05 06:37:37 BRT 2011 until Tue Dec 31 07:37:37 BRST 2030

adding as trusted cert:
  Subject: CN=QuoVadis Root Certification Authority, OU=Root Certification Authority, O=QuoVadis Limited, C=BM
  Issuer:  CN=QuoVadis Root Certification Authority, OU=Root Certification Authority, O=QuoVadis Limited, C=BM
  Algorithm: RSA; Serial number: 0x3ab6508b
  Valid from Mon Mar 19 15:33:33 BRT 2001 until Wed Mar 17 15:33:33 BRT 2021

adding as trusted cert:
  Subject: CN=SSL.com EV Root Certification Authority ECC, O=SSL Corporation, L=Houston, ST=Texas, C=US
  Issuer:  CN=SSL.com EV Root Certification Authority ECC, O=SSL Corporation, L=Houston, ST=Texas, C=US
  Algorithm: EC; Serial number: 0x2c299c5b16ed0595
  Valid from Fri Feb 12 16:15:23 BRST 2016 until Tue Feb 12 16:15:23 BRST 2041

adding as trusted cert:
  Subject: CN=Buypass Class 3 Root CA, O=Buypass AS-983163327, C=NO
  Issuer:  CN=Buypass Class 3 Root CA, O=Buypass AS-983163327, C=NO
  Algorithm: RSA; Serial number: 0x2
  Valid from Tue Oct 26 06:28:58 BRST 2010 until Fri Oct 26 05:28:58 BRT 2040

adding as trusted cert:
  Subject: CN=thawte Primary Root CA - G2, OU="(c) 2007 thawte, Inc. - For authorized use only", O="thawte, Inc.", C=US
  Issuer:  CN=thawte Primary Root CA - G2, OU="(c) 2007 thawte, Inc. - For authorized use only", O="thawte, Inc.", C=US
  Algorithm: EC; Serial number: 0x35fc265cd9844fc93d263d579baed756
  Valid from Sun Nov 04 22:00:00 BRST 2007 until Mon Jan 18 21:59:59 BRST 2038

adding as trusted cert:
  Subject: CN=VeriSign Universal Root Certification Authority, OU="(c) 2008 VeriSign, Inc. - For authorized use only", OU=VeriSign Trust Network, O="VeriSign, Inc.", C=US
  Issuer:  CN=VeriSign Universal Root Certification Authority, OU="(c) 2008 VeriSign, Inc. - For authorized use only", OU=VeriSign Trust Network, O="VeriSign, Inc.", C=US
  Algorithm: RSA; Serial number: 0x401ac46421b31321030ebbe4121ac51d
  Valid from Tue Apr 01 21:00:00 BRT 2008 until Tue Dec 01 21:59:59 BRST 2037

adding as trusted cert:
  Subject: CN=Cybertrust Global Root, O="Cybertrust, Inc"
  Issuer:  CN=Cybertrust Global Root, O="Cybertrust, Inc"
  Algorithm: RSA; Serial number: 0x400000000010f85aa2d48
  Valid from Fri Dec 15 06:00:00 BRST 2006 until Wed Dec 15 06:00:00 BRST 2021

adding as trusted cert:
  Subject: CN=Amazon Root CA 1, O=Amazon, C=US
  Issuer:  CN=Amazon Root CA 1, O=Amazon, C=US
  Algorithm: RSA; Serial number: 0x66c9fcf99bf8c0a39e2f0788a43e696365bca
  Valid from Mon May 25 21:00:00 BRT 2015 until Sat Jan 16 22:00:00 BRST 2038

adding as trusted cert:
  Subject: OU=Trustis FPS Root CA, O=Trustis Limited, C=GB
  Issuer:  OU=Trustis FPS Root CA, O=Trustis Limited, C=GB
  Algorithm: RSA; Serial number: 0x1b1fadb620f924d3366bf7c7f18ca059
  Valid from Tue Dec 23 10:14:06 BRST 2003 until Sun Jan 21 09:36:54 BRST 2024

adding as trusted cert:
  Subject: CN=GDCA TrustAUTH R5 ROOT, O="GUANG DONG CERTIFICATE AUTHORITY CO.,LTD.", C=CN
  Issuer:  CN=GDCA TrustAUTH R5 ROOT, O="GUANG DONG CERTIFICATE AUTHORITY CO.,LTD.", C=CN
  Algorithm: RSA; Serial number: 0x7d0997fef047ea7a
  Valid from Wed Nov 26 03:13:15 BRST 2014 until Mon Dec 31 13:59:59 BRST 2040

adding as trusted cert:
  Subject: CN=Amazon Root CA 2, O=Amazon, C=US
  Issuer:  CN=Amazon Root CA 2, O=Amazon, C=US
  Algorithm: RSA; Serial number: 0x66c9fd29635869f0a0fe58678f85b26bb8a37
  Valid from Mon May 25 21:00:00 BRT 2015 until Fri May 25 21:00:00 BRT 2040

adding as trusted cert:
  Subject: CN=GlobalSign, O=GlobalSign, OU=GlobalSign ECC Root CA - R4
  Issuer:  CN=GlobalSign, O=GlobalSign, OU=GlobalSign ECC Root CA - R4
  Algorithm: EC; Serial number: 0x2a38a41c960a04de42b228a50be8349802
  Valid from Mon Nov 12 22:00:00 BRST 2012 until Tue Jan 19 01:14:07 BRST 2038

adding as trusted cert:
  Subject: CN=COMODO Certification Authority, O=COMODO CA Limited, L=Salford, ST=Greater Manchester, C=GB
  Issuer:  CN=COMODO Certification Authority, O=COMODO CA Limited, L=Salford, ST=Greater Manchester, C=GB
  Algorithm: RSA; Serial number: 0x4e812d8a8265e00b02ee3e350246e53d
  Valid from Thu Nov 30 22:00:00 BRST 2006 until Mon Dec 31 21:59:59 BRST 2029

adding as trusted cert:
  Subject: EMAILADDRESS=pki@sk.ee, CN=EE Certification Centre Root CA, O=AS Sertifitseerimiskeskus, C=EE
  Issuer:  EMAILADDRESS=pki@sk.ee, CN=EE Certification Centre Root CA, O=AS Sertifitseerimiskeskus, C=EE
  Algorithm: RSA; Serial number: 0x5480f9a073ed3f004cca89d8e371e64a
  Valid from Sat Oct 30 08:10:30 BRST 2010 until Tue Dec 17 21:59:59 BRST 2030

adding as trusted cert:
  Subject: CN=Global Chambersign Root - 2008, O=AC Camerfirma S.A., SERIALNUMBER=A82743287, L=Madrid (see current address at www.camerfirma.com/address), C=EU
  Issuer:  CN=Global Chambersign Root - 2008, O=AC Camerfirma S.A., SERIALNUMBER=A82743287, L=Madrid (see current address at www.camerfirma.com/address), C=EU
  Algorithm: RSA; Serial number: 0xc9cdd3e9d57d23ce
  Valid from Fri Aug 01 09:31:40 BRT 2008 until Sat Jul 31 09:31:40 BRT 2038

adding as trusted cert:
  Subject: CN=COMODO RSA Certification Authority, O=COMODO CA Limited, L=Salford, ST=Greater Manchester, C=GB
  Issuer:  CN=COMODO RSA Certification Authority, O=COMODO CA Limited, L=Salford, ST=Greater Manchester, C=GB
  Algorithm: RSA; Serial number: 0x4caaf9cadb636fe01ff74ed85b03869d
  Valid from Mon Jan 18 22:00:00 BRST 2010 until Mon Jan 18 21:59:59 BRST 2038

adding as trusted cert:
  Subject: CN=thawte Primary Root CA - G3, OU="(c) 2008 thawte, Inc. - For authorized use only", OU=Certification Services Division, O="thawte, Inc.", C=US
  Issuer:  CN=thawte Primary Root CA - G3, OU="(c) 2008 thawte, Inc. - For authorized use only", OU=Certification Services Division, O="thawte, Inc.", C=US
  Algorithm: RSA; Serial number: 0x600197b746a7eab4b49ad64b2ff790fb
  Valid from Tue Apr 01 21:00:00 BRT 2008 until Tue Dec 01 21:59:59 BRST 2037

adding as trusted cert:
  Subject: CN=AffirmTrust Premium ECC, O=AffirmTrust, C=US
  Issuer:  CN=AffirmTrust Premium ECC, O=AffirmTrust, C=US
  Algorithm: EC; Serial number: 0x7497258ac73f7a54
  Valid from Fri Jan 29 12:20:24 BRST 2010 until Mon Dec 31 12:20:24 BRST 2040

adding as trusted cert:
  Subject: CN=T-TeleSec GlobalRoot Class 2, OU=T-Systems Trust Center, O=T-Systems Enterprise Services GmbH, C=DE
  Issuer:  CN=T-TeleSec GlobalRoot Class 2, OU=T-Systems Trust Center, O=T-Systems Enterprise Services GmbH, C=DE
  Algorithm: RSA; Serial number: 0x1
  Valid from Wed Oct 01 07:40:14 BRT 2008 until Sat Oct 01 20:59:59 BRT 2033

adding as trusted cert:
  Subject: CN=Staat der Nederlanden Root CA - G2, O=Staat der Nederlanden, C=NL
  Issuer:  CN=Staat der Nederlanden Root CA - G2, O=Staat der Nederlanden, C=NL
  Algorithm: RSA; Serial number: 0x98968c
  Valid from Wed Mar 26 08:18:17 BRT 2008 until Wed Mar 25 08:03:10 BRT 2020

adding as trusted cert:
  Subject: CN=DigiCert Global Root G2, OU=www.digicert.com, O=DigiCert Inc, C=US
  Issuer:  CN=DigiCert Global Root G2, OU=www.digicert.com, O=DigiCert Inc, C=US
  Algorithm: RSA; Serial number: 0x33af1e6a711a9a0bb2864b11d09fae5
  Valid from Thu Aug 01 09:00:00 BRT 2013 until Fri Jan 15 10:00:00 BRST 2038

adding as trusted cert:
  Subject: CN=SZAFIR ROOT CA2, O=Krajowa Izba Rozliczeniowa S.A., C=PL
  Issuer:  CN=SZAFIR ROOT CA2, O=Krajowa Izba Rozliczeniowa S.A., C=PL
  Algorithm: RSA; Serial number: 0x3e8a5d07ec55d232d5b7e3b65f01eb2ddce4d6e4
  Valid from Mon Oct 19 05:43:30 BRST 2015 until Fri Oct 19 04:43:30 BRT 2035

trigger seeding of SecureRandom
done seeding SecureRandom
18:30:59 DEBUG [or.ap.ht.im.co.BasicClientConnectionManager]] (main) Get connection for route {}->http://localhost:8081
18:30:59 DEBUG [or.ap.ht.im.co.DefaultClientConnectionOperator]] (main) Connecting to localhost:8081
18:30:59 DEBUG [or.ap.ht.cl.pr.RequestAddCookies]] (main) CookieSpec selected: ignoreCookies
18:30:59 DEBUG [or.ap.ht.cl.pr.RequestAuthCache]] (main) Auth cache not set in the context
18:30:59 DEBUG [or.ap.ht.cl.pr.RequestTargetAuthentication]] (main) Target auth state: UNCHALLENGED
18:30:59 DEBUG [or.ap.ht.cl.pr.RequestProxyAuthentication]] (main) Proxy auth state: UNCHALLENGED
18:30:59 DEBUG [or.ap.ht.im.cl.DefaultHttpClient]] (main) Attempt 1 to execute request
18:30:59 DEBUG [or.ap.ht.im.co.DefaultClientConnection]] (main) Sending request: GET /api/weather/city/2643743 HTTP/1.1
18:30:59 DEBUG [or.ap.ht.wire]] (main)  >> "GET /api/weather/city/2643743 HTTP/1.1[\r][\n]"
18:30:59 DEBUG [or.ap.ht.wire]] (main)  >> "Accept: */*[\r][\n]"
18:30:59 DEBUG [or.ap.ht.wire]] (main)  >> "Host: localhost:8081[\r][\n]"
18:30:59 DEBUG [or.ap.ht.wire]] (main)  >> "Connection: Keep-Alive[\r][\n]"
18:30:59 DEBUG [or.ap.ht.wire]] (main)  >> "User-Agent: Apache-HttpClient/4.5.7 (Java/1.8.0_212)[\r][\n]"
18:30:59 DEBUG [or.ap.ht.wire]] (main)  >> "Accept-Encoding: gzip,deflate[\r][\n]"
18:30:59 DEBUG [or.ap.ht.wire]] (main)  >> "[\r][\n]"
18:30:59 DEBUG [or.ap.ht.headers]] (main) >> GET /api/weather/city/2643743 HTTP/1.1
18:30:59 DEBUG [or.ap.ht.headers]] (main) >> Accept: */*
18:30:59 DEBUG [or.ap.ht.headers]] (main) >> Host: localhost:8081
18:30:59 DEBUG [or.ap.ht.headers]] (main) >> Connection: Keep-Alive
18:30:59 DEBUG [or.ap.ht.headers]] (main) >> User-Agent: Apache-HttpClient/4.5.7 (Java/1.8.0_212)
18:30:59 DEBUG [or.ap.ht.headers]] (main) >> Accept-Encoding: gzip,deflate
18:30:59 DEBUG [or.ap.ca.co.ne.ht.NettyHttpComponent]] (executor-thread-1) Resolving property placeholders on component: org.apache.camel.component.netty4.http.NettyHttpComponent@741276bb
18:31:00 DEBUG [or.ap.ca.co.di.DirectComponent]] (executor-thread-1) Resolving property placeholders on component: org.apache.camel.component.direct.DirectComponent@60e8cc6d
18:31:00 DEBUG [or.ap.ca.co.di.DirectComponent]] (executor-thread-1) Creating endpoint uri=[direct://getCurrentWeatherData], path=[getCurrentWeatherData]
18:31:00 DEBUG [or.ap.ca.re.LogReifier]] (executor-thread-1) LogName is not configured, using route id as logName: route1
18:31:00 DEBUG [or.ap.ca.pr.in.DefaultChannel]] (executor-thread-1) Initialize channel for target: 'Log[Trying to connect to the OpenWeatherMap to get current weather data]'
18:31:00 DEBUG [or.ap.ca.pr.in.DefaultChannel]] (executor-thread-1) Initialize channel for target: 'SetHeader[CamelHttpMethod, constant{GET}]'
18:31:00 DEBUG [or.ap.ca.pr.in.DefaultChannel]] (executor-thread-1) Initialize channel for target: 'process[Processor@0x343f69b7]'
18:31:00 DEBUG [or.ap.ca.re.LogReifier]] (executor-thread-1) LogName is not configured, using route id as logName: route1
18:31:00 DEBUG [or.ap.ca.pr.in.DefaultChannel]] (executor-thread-1) Initialize channel for target: 'Log[Headers defined: ${in.headers}]'
18:31:00 DEBUG [or.ap.ca.pr.in.DefaultChannel]] (executor-thread-1) Initialize channel for target: 'SetBody[{null}]'
18:31:00 DEBUG [or.ap.ca.co.ne.ht.NettyHttpComponent]] (executor-thread-1) Creating endpoint uri=[netty4-http://https://api.openweathermap.org/data/2.5/weather?ssl=true], path=[https://api.openweathermap.org/data/2.5/weather]
18:31:00 DEBUG [or.ap.ca.co.ne.ht.NettyHttpComponent]] (executor-thread-1) Netty http url: https://api.openweathermap.org/data/2.5/weather
18:31:00 FINE  [io.ne.ut.in.InternalThreadLocalMap]] (executor-thread-1) -Dio.netty.threadLocalMap.stringBuilder.initialSize: 1024
18:31:00 FINE  [io.ne.ut.in.InternalThreadLocalMap]] (executor-thread-1) -Dio.netty.threadLocalMap.stringBuilder.maxSize: 4096
18:31:00 DEBUG [or.ap.ca.co.ne.NettyConfiguration]] (executor-thread-1) Using object encoders and decoders
18:31:00 DEBUG [or.ap.ca.pr.in.DefaultChannel]] (executor-thread-1) Initialize channel for target: 'To[netty4-http:https://api.openweathermap.org/data/2.5/weather?ssl=true]'
18:31:00 DEBUG [or.ap.ca.re.LogReifier]] (executor-thread-1) LogName is not configured, using route id as logName: route1
18:31:00 DEBUG [or.ap.ca.pr.in.DefaultChannel]] (executor-thread-1) Initialize channel for target: 'Log[Impossible to send message to external Weather API: ${body}]'
18:31:00 DEBUG [or.ap.ca.pr.in.DefaultChannel]] (executor-thread-1) Initialize channel for target: 'SetBody[constant{{ 'error' : 'true' }}]'
18:31:00 DEBUG [or.ap.ca.re.LogReifier]] (executor-thread-1) LogName is not configured, using route id as logName: route1
18:31:00 DEBUG [or.ap.ca.pr.in.DefaultChannel]] (executor-thread-1) Initialize channel for target: 'Log[Body response from API call ${body}]'
18:31:00 DEBUG [or.ap.ca.pr.in.DefaultChannel]] (executor-thread-1) Initialize channel for target: 'DoTry[[To[netty4-http:https://api.openweathermap.org/data/2.5/weather?ssl=true], DoCatch[ [class org.apache.camel.CamelException] -> [Log[Impossible to send message to external Weather API: ${body}], SetBody[constant{{ 'error' : 'true' }}], Log[Body response from API call ${body}]]]]]'
18:31:00 DEBUG [or.ap.ca.im.RouteService]] (executor-thread-1) Starting services on route: route1
18:31:00 DEBUG [or.ap.ca.im.RouteService]] (executor-thread-1) Starting child service on route: route1 -> Pipeline[[Channel[Log(null)[Trying to connect to the OpenWeatherMap to get current weather data]], Channel[SetHeader(CamelHttpMethod, GET)], Channel[DelegateSync[org.tenkichannel.weather.api.gateway.routes.openweathermap.QueryRequestProcessor_ClientProxy@343f69b7]], Channel[Log(null)[Headers defined: ${in.headers}]], Channel[SetBody(null)], Channel[Try {Channel[sendTo(https://api.openweathermap.org/data/2.5/weather)]} Catches {[Catch[[class org.apache.camel.CamelException] -> Pipeline[[Channel[Log(null)[Impossible to send message to external Weather API: ${body}]], Channel[SetBody({ 'error' : 'true' })], Channel[Log(null)[Body response from API call ${body}]]]]]]} Finally {Finally{Processor is null}}]]]
18:31:00 DEBUG [or.ap.ca.co.ne.ht.NettyHttpProducer]] (executor-thread-1) Starting producer: Producer[https://api.openweathermap.org/data/2.5/weather]
18:31:00 FINE  [io.ne.ch.MultithreadEventLoopGroup]] (executor-thread-1) -Dio.netty.eventLoopThreads: 16
18:31:00 FINE  [io.ne.ch.ni.NioEventLoop]] (executor-thread-1) -Dio.netty.noKeySetOptimization: false
18:31:00 FINE  [io.ne.ch.ni.NioEventLoop]] (executor-thread-1) -Dio.netty.selectorAutoRebuildThreshold: 512
18:31:00 FINE  [io.ne.ut.in.PlatformDependent]] (executor-thread-1) org.jctools-core.MpscChunkedArrayQueue: available
18:31:00 DEBUG [or.ap.ca.co.ne.ht.NettyHttpProducer]] (executor-thread-1) Created NettyProducer pool[maxActive=-1, minIdle=0, maxIdle=100, minEvictableIdleTimeMillis=300000] -> org.apache.commons.pool.impl.GenericObjectPool@18150983
18:31:00 INFO  [or.ap.ca.su.js.SSLContextParameters]] (executor-thread-1) Available providers: SUN version 1.8.
18:31:00 DEBUG [or.ap.ca.su.js.TrustManagersParameters]] (executor-thread-1) TrustManagerFactory [javax.net.ssl.TrustManagerFactory@6ce30651] is using provider [SunJSSE version 1.8] and algorithm [PKIX].
18:31:00 DEBUG [or.ap.ca.su.js.KeyStoreParameters]] (executor-thread-1) KeyStore [java.security.KeyStore@7f6cdb78], initialized from [KeyStoreParameters[type=null, password=********, provider=null, resource=null]], is using provider [SUN version 1.8], has type [jks], and contains aliases [].
18:31:00 DEBUG [or.ap.ca.su.js.TrustManagersParameters]] (executor-thread-1) TrustManager[] [[sun.security.ssl.X509TrustManagerImpl@6e2e5017]], initialized from TrustManagerFactory [javax.net.ssl.TrustManagerFactory@6ce30651].
18:31:00 DEBUG [or.ap.ca.su.js.SSLContextParameters]] (executor-thread-1) SSLContext [javax.net.ssl.SSLContext@1a0b120d], initialized from [SSLContextParameters[keyManagers=null, trustManagers=TrustManagerType[keyStore=KeyStoreParameters[type=null, password=********, provider=null, resource=null], provider=null, algorithm=null], secureRandom=null, clientParameters=null, serverParameters=null, provider=null, secureSocketProtocol=null, certAlias=null, getCipherSuites()=null, getCipherSuitesFilter()=null, getSecureSocketProtocols()=null, getSecureSocketProtocolsFilter()=null, getSessionTimeout()=null]], is using provider [SunJSSE version 1.8], protocol [TLS], key managers null, trust managers [sun.security.ssl.X509TrustManagerImpl@6e2e5017], and secure random [null].
trigger seeding of SecureRandom
done seeding SecureRandom
18:31:00 DEBUG [or.ap.ca.su.js.BaseSSLContextParameters]] (executor-thread-1) SSLSocketFactory [sun.security.ssl.SSLSocketFactoryImpl@617dc9f1] created from SSLContext [javax.net.ssl.SSLContext@1a0b120d].
18:31:00 DEBUG [or.ap.ca.su.js.BaseSSLContextParameters]] (executor-thread-1) Created Socket [648bedc2[SSL_NULL_WITH_NULL_NULL: Socket[unconnected]]] from SocketFactory [sun.security.ssl.SSLSocketFactoryImpl@617dc9f1].
18:31:00 DEBUG [or.ap.ca.su.js.BaseSSLContextParameters]] (executor-thread-1) Configuring SSLSocket [648bedc2[SSL_NULL_WITH_NULL_NULL: Socket[unconnected]]] with 
	 explicitly set cipher suites [null],
	 cipher suite patterns [null],
	 available cipher suites [[TLS_ECDHE_ECDSA_WITH_AES_256_CBC_SHA384, TLS_ECDHE_RSA_WITH_AES_256_CBC_SHA384, TLS_RSA_WITH_AES_256_CBC_SHA256, TLS_DHE_RSA_WITH_AES_256_CBC_SHA256, TLS_ECDHE_ECDSA_WITH_AES_256_CBC_SHA, TLS_ECDHE_RSA_WITH_AES_256_CBC_SHA, TLS_RSA_WITH_AES_256_CBC_SHA, TLS_DHE_RSA_WITH_AES_256_CBC_SHA, TLS_ECDHE_ECDSA_WITH_AES_128_CBC_SHA256, TLS_ECDHE_RSA_WITH_AES_128_CBC_SHA256, TLS_RSA_WITH_AES_128_CBC_SHA256, TLS_DHE_RSA_WITH_AES_128_CBC_SHA256, TLS_ECDHE_ECDSA_WITH_AES_128_CBC_SHA, TLS_ECDHE_RSA_WITH_AES_128_CBC_SHA, TLS_RSA_WITH_AES_128_CBC_SHA, TLS_DHE_RSA_WITH_AES_128_CBC_SHA, TLS_ECDHE_ECDSA_WITH_AES_256_GCM_SHA384, TLS_ECDHE_ECDSA_WITH_AES_128_GCM_SHA256, TLS_ECDHE_RSA_WITH_AES_256_GCM_SHA384, TLS_RSA_WITH_AES_256_GCM_SHA384, TLS_DHE_RSA_WITH_AES_256_GCM_SHA384, TLS_ECDHE_RSA_WITH_AES_128_GCM_SHA256, TLS_RSA_WITH_AES_128_GCM_SHA256, TLS_DHE_RSA_WITH_AES_128_GCM_SHA256, TLS_EMPTY_RENEGOTIATION_INFO_SCSV]],
	 currently enabled cipher suites [[TLS_ECDHE_ECDSA_WITH_AES_256_CBC_SHA384, TLS_ECDHE_RSA_WITH_AES_256_CBC_SHA384, TLS_RSA_WITH_AES_256_CBC_SHA256, TLS_DHE_RSA_WITH_AES_256_CBC_SHA256, TLS_ECDHE_ECDSA_WITH_AES_256_CBC_SHA, TLS_ECDHE_RSA_WITH_AES_256_CBC_SHA, TLS_RSA_WITH_AES_256_CBC_SHA, TLS_DHE_RSA_WITH_AES_256_CBC_SHA, TLS_ECDHE_ECDSA_WITH_AES_128_CBC_SHA256, TLS_ECDHE_RSA_WITH_AES_128_CBC_SHA256, TLS_RSA_WITH_AES_128_CBC_SHA256, TLS_DHE_RSA_WITH_AES_128_CBC_SHA256, TLS_ECDHE_ECDSA_WITH_AES_128_CBC_SHA, TLS_ECDHE_RSA_WITH_AES_128_CBC_SHA, TLS_RSA_WITH_AES_128_CBC_SHA, TLS_DHE_RSA_WITH_AES_128_CBC_SHA, TLS_ECDHE_ECDSA_WITH_AES_256_GCM_SHA384, TLS_ECDHE_ECDSA_WITH_AES_128_GCM_SHA256, TLS_ECDHE_RSA_WITH_AES_256_GCM_SHA384, TLS_RSA_WITH_AES_256_GCM_SHA384, TLS_DHE_RSA_WITH_AES_256_GCM_SHA384, TLS_ECDHE_RSA_WITH_AES_128_GCM_SHA256, TLS_RSA_WITH_AES_128_GCM_SHA256, TLS_DHE_RSA_WITH_AES_128_GCM_SHA256, TLS_EMPTY_RENEGOTIATION_INFO_SCSV]],
	 and default cipher suite patterns [Patterns [includes=[.*], excludes=[.*_NULL_.*, .*_anon_.*, .*_EXPORT_.*, .*_DES_.*]]].
	 Resulting enabled cipher suites are [[TLS_ECDHE_ECDSA_WITH_AES_256_CBC_SHA384, TLS_ECDHE_RSA_WITH_AES_256_CBC_SHA384, TLS_RSA_WITH_AES_256_CBC_SHA256, TLS_DHE_RSA_WITH_AES_256_CBC_SHA256, TLS_ECDHE_ECDSA_WITH_AES_256_CBC_SHA, TLS_ECDHE_RSA_WITH_AES_256_CBC_SHA, TLS_RSA_WITH_AES_256_CBC_SHA, TLS_DHE_RSA_WITH_AES_256_CBC_SHA, TLS_ECDHE_ECDSA_WITH_AES_128_CBC_SHA256, TLS_ECDHE_RSA_WITH_AES_128_CBC_SHA256, TLS_RSA_WITH_AES_128_CBC_SHA256, TLS_DHE_RSA_WITH_AES_128_CBC_SHA256, TLS_ECDHE_ECDSA_WITH_AES_128_CBC_SHA, TLS_ECDHE_RSA_WITH_AES_128_CBC_SHA, TLS_RSA_WITH_AES_128_CBC_SHA, TLS_DHE_RSA_WITH_AES_128_CBC_SHA, TLS_ECDHE_ECDSA_WITH_AES_256_GCM_SHA384, TLS_ECDHE_ECDSA_WITH_AES_128_GCM_SHA256, TLS_ECDHE_RSA_WITH_AES_256_GCM_SHA384, TLS_RSA_WITH_AES_256_GCM_SHA384, TLS_DHE_RSA_WITH_AES_256_GCM_SHA384, TLS_ECDHE_RSA_WITH_AES_128_GCM_SHA256, TLS_RSA_WITH_AES_128_GCM_SHA256, TLS_DHE_RSA_WITH_AES_128_GCM_SHA256, TLS_EMPTY_RENEGOTIATION_INFO_SCSV]].
18:31:00 DEBUG [or.ap.ca.su.js.BaseSSLContextParameters]] (executor-thread-1) Configuring SSLSocket [648bedc2[SSL_NULL_WITH_NULL_NULL: Socket[unconnected]]] with 
	 explicitly set protocols [null],
	 protocol patterns [null],
	 available protocols [[TLSv1, TLSv1.1, TLSv1.2]],
	 currently enabled protocols [[TLSv1, TLSv1.1, TLSv1.2]],
	 and default protocol patterns [Patterns [includes=[.*], excludes=[SSL.*]]].
	 Resulting enabled protocols are [[TLSv1, TLSv1.1, TLSv1.2]].
18:31:00 DEBUG [or.ap.ca.su.js.BaseSSLContextParameters]] (executor-thread-1) SSLSocketFactory [sun.security.ssl.SSLSocketFactoryImpl@3a2846b3] created from SSLContext [javax.net.ssl.SSLContext@1a0b120d].
18:31:00 DEBUG [or.ap.ca.su.js.BaseSSLContextParameters]] (executor-thread-1) Created Socket [2c925e6f[SSL_NULL_WITH_NULL_NULL: Socket[unconnected]]] from SocketFactory [sun.security.ssl.SSLSocketFactoryImpl@3a2846b3].
18:31:00 DEBUG [or.ap.ca.su.js.BaseSSLContextParameters]] (executor-thread-1) Configuring SSLSocket [2c925e6f[SSL_NULL_WITH_NULL_NULL: Socket[unconnected]]] with 
	 explicitly set cipher suites [null],
	 cipher suite patterns [null],
	 available cipher suites [[TLS_ECDHE_ECDSA_WITH_AES_256_CBC_SHA384, TLS_ECDHE_RSA_WITH_AES_256_CBC_SHA384, TLS_RSA_WITH_AES_256_CBC_SHA256, TLS_DHE_RSA_WITH_AES_256_CBC_SHA256, TLS_ECDHE_ECDSA_WITH_AES_256_CBC_SHA, TLS_ECDHE_RSA_WITH_AES_256_CBC_SHA, TLS_RSA_WITH_AES_256_CBC_SHA, TLS_DHE_RSA_WITH_AES_256_CBC_SHA, TLS_ECDHE_ECDSA_WITH_AES_128_CBC_SHA256, TLS_ECDHE_RSA_WITH_AES_128_CBC_SHA256, TLS_RSA_WITH_AES_128_CBC_SHA256, TLS_DHE_RSA_WITH_AES_128_CBC_SHA256, TLS_ECDHE_ECDSA_WITH_AES_128_CBC_SHA, TLS_ECDHE_RSA_WITH_AES_128_CBC_SHA, TLS_RSA_WITH_AES_128_CBC_SHA, TLS_DHE_RSA_WITH_AES_128_CBC_SHA, TLS_ECDHE_ECDSA_WITH_AES_256_GCM_SHA384, TLS_ECDHE_ECDSA_WITH_AES_128_GCM_SHA256, TLS_ECDHE_RSA_WITH_AES_256_GCM_SHA384, TLS_RSA_WITH_AES_256_GCM_SHA384, TLS_DHE_RSA_WITH_AES_256_GCM_SHA384, TLS_ECDHE_RSA_WITH_AES_128_GCM_SHA256, TLS_RSA_WITH_AES_128_GCM_SHA256, TLS_DHE_RSA_WITH_AES_128_GCM_SHA256, TLS_EMPTY_RENEGOTIATION_INFO_SCSV]],
	 currently enabled cipher suites [[TLS_ECDHE_ECDSA_WITH_AES_256_CBC_SHA384, TLS_ECDHE_RSA_WITH_AES_256_CBC_SHA384, TLS_RSA_WITH_AES_256_CBC_SHA256, TLS_DHE_RSA_WITH_AES_256_CBC_SHA256, TLS_ECDHE_ECDSA_WITH_AES_256_CBC_SHA, TLS_ECDHE_RSA_WITH_AES_256_CBC_SHA, TLS_RSA_WITH_AES_256_CBC_SHA, TLS_DHE_RSA_WITH_AES_256_CBC_SHA, TLS_ECDHE_ECDSA_WITH_AES_128_CBC_SHA256, TLS_ECDHE_RSA_WITH_AES_128_CBC_SHA256, TLS_RSA_WITH_AES_128_CBC_SHA256, TLS_DHE_RSA_WITH_AES_128_CBC_SHA256, TLS_ECDHE_ECDSA_WITH_AES_128_CBC_SHA, TLS_ECDHE_RSA_WITH_AES_128_CBC_SHA, TLS_RSA_WITH_AES_128_CBC_SHA, TLS_DHE_RSA_WITH_AES_128_CBC_SHA, TLS_ECDHE_ECDSA_WITH_AES_256_GCM_SHA384, TLS_ECDHE_ECDSA_WITH_AES_128_GCM_SHA256, TLS_ECDHE_RSA_WITH_AES_256_GCM_SHA384, TLS_RSA_WITH_AES_256_GCM_SHA384, TLS_DHE_RSA_WITH_AES_256_GCM_SHA384, TLS_ECDHE_RSA_WITH_AES_128_GCM_SHA256, TLS_RSA_WITH_AES_128_GCM_SHA256, TLS_DHE_RSA_WITH_AES_128_GCM_SHA256, TLS_EMPTY_RENEGOTIATION_INFO_SCSV]],
	 and default cipher suite patterns [Patterns [includes=[.*], excludes=[.*_NULL_.*, .*_anon_.*, .*_EXPORT_.*, .*_DES_.*]]].
	 Resulting enabled cipher suites are [[TLS_ECDHE_ECDSA_WITH_AES_256_CBC_SHA384, TLS_ECDHE_RSA_WITH_AES_256_CBC_SHA384, TLS_RSA_WITH_AES_256_CBC_SHA256, TLS_DHE_RSA_WITH_AES_256_CBC_SHA256, TLS_ECDHE_ECDSA_WITH_AES_256_CBC_SHA, TLS_ECDHE_RSA_WITH_AES_256_CBC_SHA, TLS_RSA_WITH_AES_256_CBC_SHA, TLS_DHE_RSA_WITH_AES_256_CBC_SHA, TLS_ECDHE_ECDSA_WITH_AES_128_CBC_SHA256, TLS_ECDHE_RSA_WITH_AES_128_CBC_SHA256, TLS_RSA_WITH_AES_128_CBC_SHA256, TLS_DHE_RSA_WITH_AES_128_CBC_SHA256, TLS_ECDHE_ECDSA_WITH_AES_128_CBC_SHA, TLS_ECDHE_RSA_WITH_AES_128_CBC_SHA, TLS_RSA_WITH_AES_128_CBC_SHA, TLS_DHE_RSA_WITH_AES_128_CBC_SHA, TLS_ECDHE_ECDSA_WITH_AES_256_GCM_SHA384, TLS_ECDHE_ECDSA_WITH_AES_128_GCM_SHA256, TLS_ECDHE_RSA_WITH_AES_256_GCM_SHA384, TLS_RSA_WITH_AES_256_GCM_SHA384, TLS_DHE_RSA_WITH_AES_256_GCM_SHA384, TLS_ECDHE_RSA_WITH_AES_128_GCM_SHA256, TLS_RSA_WITH_AES_128_GCM_SHA256, TLS_DHE_RSA_WITH_AES_128_GCM_SHA256, TLS_EMPTY_RENEGOTIATION_INFO_SCSV]].
18:31:00 DEBUG [or.ap.ca.su.js.BaseSSLContextParameters]] (executor-thread-1) Configuring SSLSocket [2c925e6f[SSL_NULL_WITH_NULL_NULL: Socket[unconnected]]] with 
	 explicitly set protocols [null],
	 protocol patterns [null],
	 available protocols [[TLSv1, TLSv1.1, TLSv1.2]],
	 currently enabled protocols [[TLSv1, TLSv1.1, TLSv1.2]],
	 and default protocol patterns [Patterns [includes=[.*], excludes=[SSL.*]]].
	 Resulting enabled protocols are [[TLSv1, TLSv1.1, TLSv1.2]].
18:31:00 DEBUG [or.ap.ca.su.js.BaseSSLContextParameters]] (executor-thread-1) SSLSocketFactory [sun.security.ssl.SSLSocketFactoryImpl@57a4a9b9] created from SSLContext [javax.net.ssl.SSLContext@1a0b120d].
18:31:00 DEBUG [or.ap.ca.su.js.BaseSSLContextParameters]] (executor-thread-1) Created Socket [300e5155[SSL_NULL_WITH_NULL_NULL: Socket[unconnected]]] from SocketFactory [sun.security.ssl.SSLSocketFactoryImpl@57a4a9b9].
18:31:00 DEBUG [or.ap.ca.su.js.BaseSSLContextParameters]] (executor-thread-1) Configuring SSLSocket [300e5155[SSL_NULL_WITH_NULL_NULL: Socket[unconnected]]] with 
	 explicitly set cipher suites [null],
	 cipher suite patterns [null],
	 available cipher suites [[TLS_ECDHE_ECDSA_WITH_AES_256_CBC_SHA384, TLS_ECDHE_RSA_WITH_AES_256_CBC_SHA384, TLS_RSA_WITH_AES_256_CBC_SHA256, TLS_DHE_RSA_WITH_AES_256_CBC_SHA256, TLS_ECDHE_ECDSA_WITH_AES_256_CBC_SHA, TLS_ECDHE_RSA_WITH_AES_256_CBC_SHA, TLS_RSA_WITH_AES_256_CBC_SHA, TLS_DHE_RSA_WITH_AES_256_CBC_SHA, TLS_ECDHE_ECDSA_WITH_AES_128_CBC_SHA256, TLS_ECDHE_RSA_WITH_AES_128_CBC_SHA256, TLS_RSA_WITH_AES_128_CBC_SHA256, TLS_DHE_RSA_WITH_AES_128_CBC_SHA256, TLS_ECDHE_ECDSA_WITH_AES_128_CBC_SHA, TLS_ECDHE_RSA_WITH_AES_128_CBC_SHA, TLS_RSA_WITH_AES_128_CBC_SHA, TLS_DHE_RSA_WITH_AES_128_CBC_SHA, TLS_ECDHE_ECDSA_WITH_AES_256_GCM_SHA384, TLS_ECDHE_ECDSA_WITH_AES_128_GCM_SHA256, TLS_ECDHE_RSA_WITH_AES_256_GCM_SHA384, TLS_RSA_WITH_AES_256_GCM_SHA384, TLS_DHE_RSA_WITH_AES_256_GCM_SHA384, TLS_ECDHE_RSA_WITH_AES_128_GCM_SHA256, TLS_RSA_WITH_AES_128_GCM_SHA256, TLS_DHE_RSA_WITH_AES_128_GCM_SHA256, TLS_EMPTY_RENEGOTIATION_INFO_SCSV]],
	 currently enabled cipher suites [[TLS_ECDHE_ECDSA_WITH_AES_256_CBC_SHA384, TLS_ECDHE_RSA_WITH_AES_256_CBC_SHA384, TLS_RSA_WITH_AES_256_CBC_SHA256, TLS_DHE_RSA_WITH_AES_256_CBC_SHA256, TLS_ECDHE_ECDSA_WITH_AES_256_CBC_SHA, TLS_ECDHE_RSA_WITH_AES_256_CBC_SHA, TLS_RSA_WITH_AES_256_CBC_SHA, TLS_DHE_RSA_WITH_AES_256_CBC_SHA, TLS_ECDHE_ECDSA_WITH_AES_128_CBC_SHA256, TLS_ECDHE_RSA_WITH_AES_128_CBC_SHA256, TLS_RSA_WITH_AES_128_CBC_SHA256, TLS_DHE_RSA_WITH_AES_128_CBC_SHA256, TLS_ECDHE_ECDSA_WITH_AES_128_CBC_SHA, TLS_ECDHE_RSA_WITH_AES_128_CBC_SHA, TLS_RSA_WITH_AES_128_CBC_SHA, TLS_DHE_RSA_WITH_AES_128_CBC_SHA, TLS_ECDHE_ECDSA_WITH_AES_256_GCM_SHA384, TLS_ECDHE_ECDSA_WITH_AES_128_GCM_SHA256, TLS_ECDHE_RSA_WITH_AES_256_GCM_SHA384, TLS_RSA_WITH_AES_256_GCM_SHA384, TLS_DHE_RSA_WITH_AES_256_GCM_SHA384, TLS_ECDHE_RSA_WITH_AES_128_GCM_SHA256, TLS_RSA_WITH_AES_128_GCM_SHA256, TLS_DHE_RSA_WITH_AES_128_GCM_SHA256, TLS_EMPTY_RENEGOTIATION_INFO_SCSV]],
	 and default cipher suite patterns [Patterns [includes=[.*], excludes=[.*_NULL_.*, .*_anon_.*, .*_EXPORT_.*, .*_DES_.*]]].
	 Resulting enabled cipher suites are [[TLS_ECDHE_ECDSA_WITH_AES_256_CBC_SHA384, TLS_ECDHE_RSA_WITH_AES_256_CBC_SHA384, TLS_RSA_WITH_AES_256_CBC_SHA256, TLS_DHE_RSA_WITH_AES_256_CBC_SHA256, TLS_ECDHE_ECDSA_WITH_AES_256_CBC_SHA, TLS_ECDHE_RSA_WITH_AES_256_CBC_SHA, TLS_RSA_WITH_AES_256_CBC_SHA, TLS_DHE_RSA_WITH_AES_256_CBC_SHA, TLS_ECDHE_ECDSA_WITH_AES_128_CBC_SHA256, TLS_ECDHE_RSA_WITH_AES_128_CBC_SHA256, TLS_RSA_WITH_AES_128_CBC_SHA256, TLS_DHE_RSA_WITH_AES_128_CBC_SHA256, TLS_ECDHE_ECDSA_WITH_AES_128_CBC_SHA, TLS_ECDHE_RSA_WITH_AES_128_CBC_SHA, TLS_RSA_WITH_AES_128_CBC_SHA, TLS_DHE_RSA_WITH_AES_128_CBC_SHA, TLS_ECDHE_ECDSA_WITH_AES_256_GCM_SHA384, TLS_ECDHE_ECDSA_WITH_AES_128_GCM_SHA256, TLS_ECDHE_RSA_WITH_AES_256_GCM_SHA384, TLS_RSA_WITH_AES_256_GCM_SHA384, TLS_DHE_RSA_WITH_AES_256_GCM_SHA384, TLS_ECDHE_RSA_WITH_AES_128_GCM_SHA256, TLS_RSA_WITH_AES_128_GCM_SHA256, TLS_DHE_RSA_WITH_AES_128_GCM_SHA256, TLS_EMPTY_RENEGOTIATION_INFO_SCSV]].
18:31:00 DEBUG [or.ap.ca.su.js.BaseSSLContextParameters]] (executor-thread-1) Configuring SSLSocket [300e5155[SSL_NULL_WITH_NULL_NULL: Socket[unconnected]]] with 
	 explicitly set protocols [null],
	 protocol patterns [null],
	 available protocols [[TLSv1, TLSv1.1, TLSv1.2]],
	 currently enabled protocols [[TLSv1, TLSv1.1, TLSv1.2]],
	 and default protocol patterns [Patterns [includes=[.*], excludes=[SSL.*]]].
	 Resulting enabled protocols are [[TLSv1, TLSv1.1, TLSv1.2]].
18:31:00 DEBUG [or.ap.ca.su.js.BaseSSLContextParameters]] (executor-thread-1) SSLSocketFactory [sun.security.ssl.SSLSocketFactoryImpl@1a845ec7] created from SSLContext [javax.net.ssl.SSLContext@1a0b120d].
18:31:00 DEBUG [or.ap.ca.su.js.BaseSSLContextParameters]] (executor-thread-1) Created Socket [6fcbb688[SSL_NULL_WITH_NULL_NULL: Socket[unconnected]]] from SocketFactory [sun.security.ssl.SSLSocketFactoryImpl@1a845ec7].
18:31:00 DEBUG [or.ap.ca.su.js.BaseSSLContextParameters]] (executor-thread-1) Configuring SSLSocket [6fcbb688[SSL_NULL_WITH_NULL_NULL: Socket[unconnected]]] with 
	 explicitly set cipher suites [null],
	 cipher suite patterns [null],
	 available cipher suites [[TLS_ECDHE_ECDSA_WITH_AES_256_CBC_SHA384, TLS_ECDHE_RSA_WITH_AES_256_CBC_SHA384, TLS_RSA_WITH_AES_256_CBC_SHA256, TLS_DHE_RSA_WITH_AES_256_CBC_SHA256, TLS_ECDHE_ECDSA_WITH_AES_256_CBC_SHA, TLS_ECDHE_RSA_WITH_AES_256_CBC_SHA, TLS_RSA_WITH_AES_256_CBC_SHA, TLS_DHE_RSA_WITH_AES_256_CBC_SHA, TLS_ECDHE_ECDSA_WITH_AES_128_CBC_SHA256, TLS_ECDHE_RSA_WITH_AES_128_CBC_SHA256, TLS_RSA_WITH_AES_128_CBC_SHA256, TLS_DHE_RSA_WITH_AES_128_CBC_SHA256, TLS_ECDHE_ECDSA_WITH_AES_128_CBC_SHA, TLS_ECDHE_RSA_WITH_AES_128_CBC_SHA, TLS_RSA_WITH_AES_128_CBC_SHA, TLS_DHE_RSA_WITH_AES_128_CBC_SHA, TLS_ECDHE_ECDSA_WITH_AES_256_GCM_SHA384, TLS_ECDHE_ECDSA_WITH_AES_128_GCM_SHA256, TLS_ECDHE_RSA_WITH_AES_256_GCM_SHA384, TLS_RSA_WITH_AES_256_GCM_SHA384, TLS_DHE_RSA_WITH_AES_256_GCM_SHA384, TLS_ECDHE_RSA_WITH_AES_128_GCM_SHA256, TLS_RSA_WITH_AES_128_GCM_SHA256, TLS_DHE_RSA_WITH_AES_128_GCM_SHA256, TLS_EMPTY_RENEGOTIATION_INFO_SCSV]],
	 currently enabled cipher suites [[TLS_ECDHE_ECDSA_WITH_AES_256_CBC_SHA384, TLS_ECDHE_RSA_WITH_AES_256_CBC_SHA384, TLS_RSA_WITH_AES_256_CBC_SHA256, TLS_DHE_RSA_WITH_AES_256_CBC_SHA256, TLS_ECDHE_ECDSA_WITH_AES_256_CBC_SHA, TLS_ECDHE_RSA_WITH_AES_256_CBC_SHA, TLS_RSA_WITH_AES_256_CBC_SHA, TLS_DHE_RSA_WITH_AES_256_CBC_SHA, TLS_ECDHE_ECDSA_WITH_AES_128_CBC_SHA256, TLS_ECDHE_RSA_WITH_AES_128_CBC_SHA256, TLS_RSA_WITH_AES_128_CBC_SHA256, TLS_DHE_RSA_WITH_AES_128_CBC_SHA256, TLS_ECDHE_ECDSA_WITH_AES_128_CBC_SHA, TLS_ECDHE_RSA_WITH_AES_128_CBC_SHA, TLS_RSA_WITH_AES_128_CBC_SHA, TLS_DHE_RSA_WITH_AES_128_CBC_SHA, TLS_ECDHE_ECDSA_WITH_AES_256_GCM_SHA384, TLS_ECDHE_ECDSA_WITH_AES_128_GCM_SHA256, TLS_ECDHE_RSA_WITH_AES_256_GCM_SHA384, TLS_RSA_WITH_AES_256_GCM_SHA384, TLS_DHE_RSA_WITH_AES_256_GCM_SHA384, TLS_ECDHE_RSA_WITH_AES_128_GCM_SHA256, TLS_RSA_WITH_AES_128_GCM_SHA256, TLS_DHE_RSA_WITH_AES_128_GCM_SHA256, TLS_EMPTY_RENEGOTIATION_INFO_SCSV]],
	 and default cipher suite patterns [Patterns [includes=[.*], excludes=[.*_NULL_.*, .*_anon_.*, .*_EXPORT_.*, .*_DES_.*]]].
	 Resulting enabled cipher suites are [[TLS_ECDHE_ECDSA_WITH_AES_256_CBC_SHA384, TLS_ECDHE_RSA_WITH_AES_256_CBC_SHA384, TLS_RSA_WITH_AES_256_CBC_SHA256, TLS_DHE_RSA_WITH_AES_256_CBC_SHA256, TLS_ECDHE_ECDSA_WITH_AES_256_CBC_SHA, TLS_ECDHE_RSA_WITH_AES_256_CBC_SHA, TLS_RSA_WITH_AES_256_CBC_SHA, TLS_DHE_RSA_WITH_AES_256_CBC_SHA, TLS_ECDHE_ECDSA_WITH_AES_128_CBC_SHA256, TLS_ECDHE_RSA_WITH_AES_128_CBC_SHA256, TLS_RSA_WITH_AES_128_CBC_SHA256, TLS_DHE_RSA_WITH_AES_128_CBC_SHA256, TLS_ECDHE_ECDSA_WITH_AES_128_CBC_SHA, TLS_ECDHE_RSA_WITH_AES_128_CBC_SHA, TLS_RSA_WITH_AES_128_CBC_SHA, TLS_DHE_RSA_WITH_AES_128_CBC_SHA, TLS_ECDHE_ECDSA_WITH_AES_256_GCM_SHA384, TLS_ECDHE_ECDSA_WITH_AES_128_GCM_SHA256, TLS_ECDHE_RSA_WITH_AES_256_GCM_SHA384, TLS_RSA_WITH_AES_256_GCM_SHA384, TLS_DHE_RSA_WITH_AES_256_GCM_SHA384, TLS_ECDHE_RSA_WITH_AES_128_GCM_SHA256, TLS_RSA_WITH_AES_128_GCM_SHA256, TLS_DHE_RSA_WITH_AES_128_GCM_SHA256, TLS_EMPTY_RENEGOTIATION_INFO_SCSV]].
18:31:00 DEBUG [or.ap.ca.su.js.BaseSSLContextParameters]] (executor-thread-1) Configuring SSLSocket [6fcbb688[SSL_NULL_WITH_NULL_NULL: Socket[unconnected]]] with 
	 explicitly set protocols [null],
	 protocol patterns [null],
	 available protocols [[TLSv1, TLSv1.1, TLSv1.2]],
	 currently enabled protocols [[TLSv1, TLSv1.1, TLSv1.2]],
	 and default protocol patterns [Patterns [includes=[.*], excludes=[SSL.*]]].
	 Resulting enabled protocols are [[TLSv1, TLSv1.1, TLSv1.2]].
18:31:00 DEBUG [or.ap.ca.su.js.BaseSSLContextParameters]] (executor-thread-1) SSLSocketFactory [sun.security.ssl.SSLSocketFactoryImpl@3cc56f80] created from SSLContext [javax.net.ssl.SSLContext@1a0b120d].
18:31:00 DEBUG [or.ap.ca.su.js.BaseSSLContextParameters]] (executor-thread-1) Created Socket [1fd81b68[SSL_NULL_WITH_NULL_NULL: Socket[unconnected]]] from SocketFactory [sun.security.ssl.SSLSocketFactoryImpl@3cc56f80].
18:31:00 DEBUG [or.ap.ca.su.js.BaseSSLContextParameters]] (executor-thread-1) Configuring SSLSocket [1fd81b68[SSL_NULL_WITH_NULL_NULL: Socket[unconnected]]] with 
	 explicitly set cipher suites [null],
	 cipher suite patterns [null],
	 available cipher suites [[TLS_ECDHE_ECDSA_WITH_AES_256_CBC_SHA384, TLS_ECDHE_RSA_WITH_AES_256_CBC_SHA384, TLS_RSA_WITH_AES_256_CBC_SHA256, TLS_DHE_RSA_WITH_AES_256_CBC_SHA256, TLS_ECDHE_ECDSA_WITH_AES_256_CBC_SHA, TLS_ECDHE_RSA_WITH_AES_256_CBC_SHA, TLS_RSA_WITH_AES_256_CBC_SHA, TLS_DHE_RSA_WITH_AES_256_CBC_SHA, TLS_ECDHE_ECDSA_WITH_AES_128_CBC_SHA256, TLS_ECDHE_RSA_WITH_AES_128_CBC_SHA256, TLS_RSA_WITH_AES_128_CBC_SHA256, TLS_DHE_RSA_WITH_AES_128_CBC_SHA256, TLS_ECDHE_ECDSA_WITH_AES_128_CBC_SHA, TLS_ECDHE_RSA_WITH_AES_128_CBC_SHA, TLS_RSA_WITH_AES_128_CBC_SHA, TLS_DHE_RSA_WITH_AES_128_CBC_SHA, TLS_ECDHE_ECDSA_WITH_AES_256_GCM_SHA384, TLS_ECDHE_ECDSA_WITH_AES_128_GCM_SHA256, TLS_ECDHE_RSA_WITH_AES_256_GCM_SHA384, TLS_RSA_WITH_AES_256_GCM_SHA384, TLS_DHE_RSA_WITH_AES_256_GCM_SHA384, TLS_ECDHE_RSA_WITH_AES_128_GCM_SHA256, TLS_RSA_WITH_AES_128_GCM_SHA256, TLS_DHE_RSA_WITH_AES_128_GCM_SHA256, TLS_EMPTY_RENEGOTIATION_INFO_SCSV]],
	 currently enabled cipher suites [[TLS_ECDHE_ECDSA_WITH_AES_256_CBC_SHA384, TLS_ECDHE_RSA_WITH_AES_256_CBC_SHA384, TLS_RSA_WITH_AES_256_CBC_SHA256, TLS_DHE_RSA_WITH_AES_256_CBC_SHA256, TLS_ECDHE_ECDSA_WITH_AES_256_CBC_SHA, TLS_ECDHE_RSA_WITH_AES_256_CBC_SHA, TLS_RSA_WITH_AES_256_CBC_SHA, TLS_DHE_RSA_WITH_AES_256_CBC_SHA, TLS_ECDHE_ECDSA_WITH_AES_128_CBC_SHA256, TLS_ECDHE_RSA_WITH_AES_128_CBC_SHA256, TLS_RSA_WITH_AES_128_CBC_SHA256, TLS_DHE_RSA_WITH_AES_128_CBC_SHA256, TLS_ECDHE_ECDSA_WITH_AES_128_CBC_SHA, TLS_ECDHE_RSA_WITH_AES_128_CBC_SHA, TLS_RSA_WITH_AES_128_CBC_SHA, TLS_DHE_RSA_WITH_AES_128_CBC_SHA, TLS_ECDHE_ECDSA_WITH_AES_256_GCM_SHA384, TLS_ECDHE_ECDSA_WITH_AES_128_GCM_SHA256, TLS_ECDHE_RSA_WITH_AES_256_GCM_SHA384, TLS_RSA_WITH_AES_256_GCM_SHA384, TLS_DHE_RSA_WITH_AES_256_GCM_SHA384, TLS_ECDHE_RSA_WITH_AES_128_GCM_SHA256, TLS_RSA_WITH_AES_128_GCM_SHA256, TLS_DHE_RSA_WITH_AES_128_GCM_SHA256, TLS_EMPTY_RENEGOTIATION_INFO_SCSV]],
	 and default cipher suite patterns [Patterns [includes=[.*], excludes=[.*_NULL_.*, .*_anon_.*, .*_EXPORT_.*, .*_DES_.*]]].
	 Resulting enabled cipher suites are [[TLS_ECDHE_ECDSA_WITH_AES_256_CBC_SHA384, TLS_ECDHE_RSA_WITH_AES_256_CBC_SHA384, TLS_RSA_WITH_AES_256_CBC_SHA256, TLS_DHE_RSA_WITH_AES_256_CBC_SHA256, TLS_ECDHE_ECDSA_WITH_AES_256_CBC_SHA, TLS_ECDHE_RSA_WITH_AES_256_CBC_SHA, TLS_RSA_WITH_AES_256_CBC_SHA, TLS_DHE_RSA_WITH_AES_256_CBC_SHA, TLS_ECDHE_ECDSA_WITH_AES_128_CBC_SHA256, TLS_ECDHE_RSA_WITH_AES_128_CBC_SHA256, TLS_RSA_WITH_AES_128_CBC_SHA256, TLS_DHE_RSA_WITH_AES_128_CBC_SHA256, TLS_ECDHE_ECDSA_WITH_AES_128_CBC_SHA, TLS_ECDHE_RSA_WITH_AES_128_CBC_SHA, TLS_RSA_WITH_AES_128_CBC_SHA, TLS_DHE_RSA_WITH_AES_128_CBC_SHA, TLS_ECDHE_ECDSA_WITH_AES_256_GCM_SHA384, TLS_ECDHE_ECDSA_WITH_AES_128_GCM_SHA256, TLS_ECDHE_RSA_WITH_AES_256_GCM_SHA384, TLS_RSA_WITH_AES_256_GCM_SHA384, TLS_DHE_RSA_WITH_AES_256_GCM_SHA384, TLS_ECDHE_RSA_WITH_AES_128_GCM_SHA256, TLS_RSA_WITH_AES_128_GCM_SHA256, TLS_DHE_RSA_WITH_AES_128_GCM_SHA256, TLS_EMPTY_RENEGOTIATION_INFO_SCSV]].
18:31:00 DEBUG [or.ap.ca.su.js.BaseSSLContextParameters]] (executor-thread-1) Configuring SSLSocket [1fd81b68[SSL_NULL_WITH_NULL_NULL: Socket[unconnected]]] with 
	 explicitly set protocols [null],
	 protocol patterns [null],
	 available protocols [[TLSv1, TLSv1.1, TLSv1.2]],
	 currently enabled protocols [[TLSv1, TLSv1.1, TLSv1.2]],
	 and default protocol patterns [Patterns [includes=[.*], excludes=[SSL.*]]].
	 Resulting enabled protocols are [[TLSv1, TLSv1.1, TLSv1.2]].
18:31:00 DEBUG [or.ap.ca.su.js.BaseSSLContextParameters]] (executor-thread-1) SSLSocketFactory [sun.security.ssl.SSLSocketFactoryImpl@3d1087e9] created from SSLContext [javax.net.ssl.SSLContext@1a0b120d].
18:31:00 DEBUG [or.ap.ca.su.js.BaseSSLContextParameters]] (executor-thread-1) Created Socket [4cfbcd84[SSL_NULL_WITH_NULL_NULL: Socket[unconnected]]] from SocketFactory [sun.security.ssl.SSLSocketFactoryImpl@3d1087e9].
18:31:00 DEBUG [or.ap.ca.su.js.BaseSSLContextParameters]] (executor-thread-1) Configuring SSLSocket [4cfbcd84[SSL_NULL_WITH_NULL_NULL: Socket[unconnected]]] with 
	 explicitly set cipher suites [null],
	 cipher suite patterns [null],
	 available cipher suites [[TLS_ECDHE_ECDSA_WITH_AES_256_CBC_SHA384, TLS_ECDHE_RSA_WITH_AES_256_CBC_SHA384, TLS_RSA_WITH_AES_256_CBC_SHA256, TLS_DHE_RSA_WITH_AES_256_CBC_SHA256, TLS_ECDHE_ECDSA_WITH_AES_256_CBC_SHA, TLS_ECDHE_RSA_WITH_AES_256_CBC_SHA, TLS_RSA_WITH_AES_256_CBC_SHA, TLS_DHE_RSA_WITH_AES_256_CBC_SHA, TLS_ECDHE_ECDSA_WITH_AES_128_CBC_SHA256, TLS_ECDHE_RSA_WITH_AES_128_CBC_SHA256, TLS_RSA_WITH_AES_128_CBC_SHA256, TLS_DHE_RSA_WITH_AES_128_CBC_SHA256, TLS_ECDHE_ECDSA_WITH_AES_128_CBC_SHA, TLS_ECDHE_RSA_WITH_AES_128_CBC_SHA, TLS_RSA_WITH_AES_128_CBC_SHA, TLS_DHE_RSA_WITH_AES_128_CBC_SHA, TLS_ECDHE_ECDSA_WITH_AES_256_GCM_SHA384, TLS_ECDHE_ECDSA_WITH_AES_128_GCM_SHA256, TLS_ECDHE_RSA_WITH_AES_256_GCM_SHA384, TLS_RSA_WITH_AES_256_GCM_SHA384, TLS_DHE_RSA_WITH_AES_256_GCM_SHA384, TLS_ECDHE_RSA_WITH_AES_128_GCM_SHA256, TLS_RSA_WITH_AES_128_GCM_SHA256, TLS_DHE_RSA_WITH_AES_128_GCM_SHA256, TLS_EMPTY_RENEGOTIATION_INFO_SCSV]],
	 currently enabled cipher suites [[TLS_ECDHE_ECDSA_WITH_AES_256_CBC_SHA384, TLS_ECDHE_RSA_WITH_AES_256_CBC_SHA384, TLS_RSA_WITH_AES_256_CBC_SHA256, TLS_DHE_RSA_WITH_AES_256_CBC_SHA256, TLS_ECDHE_ECDSA_WITH_AES_256_CBC_SHA, TLS_ECDHE_RSA_WITH_AES_256_CBC_SHA, TLS_RSA_WITH_AES_256_CBC_SHA, TLS_DHE_RSA_WITH_AES_256_CBC_SHA, TLS_ECDHE_ECDSA_WITH_AES_128_CBC_SHA256, TLS_ECDHE_RSA_WITH_AES_128_CBC_SHA256, TLS_RSA_WITH_AES_128_CBC_SHA256, TLS_DHE_RSA_WITH_AES_128_CBC_SHA256, TLS_ECDHE_ECDSA_WITH_AES_128_CBC_SHA, TLS_ECDHE_RSA_WITH_AES_128_CBC_SHA, TLS_RSA_WITH_AES_128_CBC_SHA, TLS_DHE_RSA_WITH_AES_128_CBC_SHA, TLS_ECDHE_ECDSA_WITH_AES_256_GCM_SHA384, TLS_ECDHE_ECDSA_WITH_AES_128_GCM_SHA256, TLS_ECDHE_RSA_WITH_AES_256_GCM_SHA384, TLS_RSA_WITH_AES_256_GCM_SHA384, TLS_DHE_RSA_WITH_AES_256_GCM_SHA384, TLS_ECDHE_RSA_WITH_AES_128_GCM_SHA256, TLS_RSA_WITH_AES_128_GCM_SHA256, TLS_DHE_RSA_WITH_AES_128_GCM_SHA256, TLS_EMPTY_RENEGOTIATION_INFO_SCSV]],
	 and default cipher suite patterns [Patterns [includes=[.*], excludes=[.*_NULL_.*, .*_anon_.*, .*_EXPORT_.*, .*_DES_.*]]].
	 Resulting enabled cipher suites are [[TLS_ECDHE_ECDSA_WITH_AES_256_CBC_SHA384, TLS_ECDHE_RSA_WITH_AES_256_CBC_SHA384, TLS_RSA_WITH_AES_256_CBC_SHA256, TLS_DHE_RSA_WITH_AES_256_CBC_SHA256, TLS_ECDHE_ECDSA_WITH_AES_256_CBC_SHA, TLS_ECDHE_RSA_WITH_AES_256_CBC_SHA, TLS_RSA_WITH_AES_256_CBC_SHA, TLS_DHE_RSA_WITH_AES_256_CBC_SHA, TLS_ECDHE_ECDSA_WITH_AES_128_CBC_SHA256, TLS_ECDHE_RSA_WITH_AES_128_CBC_SHA256, TLS_RSA_WITH_AES_128_CBC_SHA256, TLS_DHE_RSA_WITH_AES_128_CBC_SHA256, TLS_ECDHE_ECDSA_WITH_AES_128_CBC_SHA, TLS_ECDHE_RSA_WITH_AES_128_CBC_SHA, TLS_RSA_WITH_AES_128_CBC_SHA, TLS_DHE_RSA_WITH_AES_128_CBC_SHA, TLS_ECDHE_ECDSA_WITH_AES_256_GCM_SHA384, TLS_ECDHE_ECDSA_WITH_AES_128_GCM_SHA256, TLS_ECDHE_RSA_WITH_AES_256_GCM_SHA384, TLS_RSA_WITH_AES_256_GCM_SHA384, TLS_DHE_RSA_WITH_AES_256_GCM_SHA384, TLS_ECDHE_RSA_WITH_AES_128_GCM_SHA256, TLS_RSA_WITH_AES_128_GCM_SHA256, TLS_DHE_RSA_WITH_AES_128_GCM_SHA256, TLS_EMPTY_RENEGOTIATION_INFO_SCSV]].
18:31:00 DEBUG [or.ap.ca.su.js.BaseSSLContextParameters]] (executor-thread-1) Configuring SSLSocket [4cfbcd84[SSL_NULL_WITH_NULL_NULL: Socket[unconnected]]] with 
	 explicitly set protocols [null],
	 protocol patterns [null],
	 available protocols [[TLSv1, TLSv1.1, TLSv1.2]],
	 currently enabled protocols [[TLSv1, TLSv1.1, TLSv1.2]],
	 and default protocol patterns [Patterns [includes=[.*], excludes=[SSL.*]]].
	 Resulting enabled protocols are [[TLSv1, TLSv1.1, TLSv1.2]].
18:31:00 DEBUG [or.ap.ca.su.js.BaseSSLContextParameters]] (executor-thread-1) SSLContextDecorator [SSLContext[hash=5c2123a, provider=SunJSSE version 1.8, protocol=TLS, needClientAuth=false, wantClientAuth=false
	defaultProtocols=TLSv1,TLSv1.1,TLSv1.2
	defaultChiperSuites=TLS_ECDHE_ECDSA_WITH_AES_256_CBC_SHA384,TLS_ECDHE_RSA_WITH_AES_256_CBC_SHA384,TLS_RSA_WITH_AES_256_CBC_SHA256,TLS_DHE_RSA_WITH_AES_256_CBC_SHA256,TLS_ECDHE_ECDSA_WITH_AES_256_CBC_SHA,TLS_ECDHE_RSA_WITH_AES_256_CBC_SHA,TLS_RSA_WITH_AES_256_CBC_SHA,TLS_DHE_RSA_WITH_AES_256_CBC_SHA,TLS_ECDHE_ECDSA_WITH_AES_128_CBC_SHA256,TLS_ECDHE_RSA_WITH_AES_128_CBC_SHA256,TLS_RSA_WITH_AES_128_CBC_SHA256,TLS_DHE_RSA_WITH_AES_128_CBC_SHA256,TLS_ECDHE_ECDSA_WITH_AES_128_CBC_SHA,TLS_ECDHE_RSA_WITH_AES_128_CBC_SHA,TLS_RSA_WITH_AES_128_CBC_SHA,TLS_DHE_RSA_WITH_AES_128_CBC_SHA,TLS_ECDHE_ECDSA_WITH_AES_256_GCM_SHA384,TLS_ECDHE_ECDSA_WITH_AES_128_GCM_SHA256,TLS_ECDHE_RSA_WITH_AES_256_GCM_SHA384,TLS_RSA_WITH_AES_256_GCM_SHA384,TLS_DHE_RSA_WITH_AES_256_GCM_SHA384,TLS_ECDHE_RSA_WITH_AES_128_GCM_SHA256,TLS_RSA_WITH_AES_128_GCM_SHA256,TLS_DHE_RSA_WITH_AES_128_GCM_SHA256,TLS_EMPTY_RENEGOTIATION_INFO_SCSV
	supportedProtocols=SSLv2Hello,SSLv3,TLSv1,TLSv1.1,TLSv1.2
	supportedChiperSuites=TLS_ECDHE_ECDSA_WITH_AES_256_CBC_SHA384,TLS_ECDHE_RSA_WITH_AES_256_CBC_SHA384,TLS_RSA_WITH_AES_256_CBC_SHA256,TLS_DHE_RSA_WITH_AES_256_CBC_SHA256,TLS_ECDHE_ECDSA_WITH_AES_256_CBC_SHA,TLS_ECDHE_RSA_WITH_AES_256_CBC_SHA,TLS_RSA_WITH_AES_256_CBC_SHA,TLS_DHE_RSA_WITH_AES_256_CBC_SHA,TLS_ECDHE_ECDSA_WITH_AES_128_CBC_SHA256,TLS_ECDHE_RSA_WITH_AES_128_CBC_SHA256,TLS_RSA_WITH_AES_128_CBC_SHA256,TLS_DHE_RSA_WITH_AES_128_CBC_SHA256,TLS_ECDHE_ECDSA_WITH_AES_128_CBC_SHA,TLS_ECDHE_RSA_WITH_AES_128_CBC_SHA,TLS_RSA_WITH_AES_128_CBC_SHA,TLS_DHE_RSA_WITH_AES_128_CBC_SHA,TLS_ECDHE_ECDSA_WITH_AES_256_GCM_SHA384,TLS_ECDHE_ECDSA_WITH_AES_128_GCM_SHA256,TLS_ECDHE_RSA_WITH_AES_256_GCM_SHA384,TLS_RSA_WITH_AES_256_GCM_SHA384,TLS_DHE_RSA_WITH_AES_256_GCM_SHA384,TLS_ECDHE_RSA_WITH_AES_128_GCM_SHA256,TLS_RSA_WITH_AES_128_GCM_SHA256,TLS_DHE_RSA_WITH_AES_128_GCM_SHA256,TLS_EMPTY_RENEGOTIATION_INFO_SCSV,TLS_RSA_WITH_NULL_SHA256,TLS_ECDHE_ECDSA_WITH_NULL_SHA,TLS_ECDHE_RSA_WITH_NULL_SHA,SSL_RSA_WITH_NULL_SHA
]] decorating SSLContext [javax.net.ssl.SSLContext@1a0b120d].
18:31:00 DEBUG [or.ap.ca.su.js.BaseSSLContextParameters]] (executor-thread-1) SSLSocketFactory [sun.security.ssl.SSLSocketFactoryImpl@48994a06] created from SSLContext [javax.net.ssl.SSLContext@1a0b120d].
18:31:00 DEBUG [or.ap.ca.su.js.BaseSSLContextParameters]] (executor-thread-1) Created Socket [53bec99d[SSL_NULL_WITH_NULL_NULL: Socket[unconnected]]] from SocketFactory [sun.security.ssl.SSLSocketFactoryImpl@48994a06].
18:31:00 DEBUG [or.ap.ca.su.js.BaseSSLContextParameters]] (executor-thread-1) Configuring SSLSocket [53bec99d[SSL_NULL_WITH_NULL_NULL: Socket[unconnected]]] with 
	 explicitly set cipher suites [null],
	 cipher suite patterns [null],
	 available cipher suites [[TLS_ECDHE_ECDSA_WITH_AES_256_CBC_SHA384, TLS_ECDHE_RSA_WITH_AES_256_CBC_SHA384, TLS_RSA_WITH_AES_256_CBC_SHA256, TLS_DHE_RSA_WITH_AES_256_CBC_SHA256, TLS_ECDHE_ECDSA_WITH_AES_256_CBC_SHA, TLS_ECDHE_RSA_WITH_AES_256_CBC_SHA, TLS_RSA_WITH_AES_256_CBC_SHA, TLS_DHE_RSA_WITH_AES_256_CBC_SHA, TLS_ECDHE_ECDSA_WITH_AES_128_CBC_SHA256, TLS_ECDHE_RSA_WITH_AES_128_CBC_SHA256, TLS_RSA_WITH_AES_128_CBC_SHA256, TLS_DHE_RSA_WITH_AES_128_CBC_SHA256, TLS_ECDHE_ECDSA_WITH_AES_128_CBC_SHA, TLS_ECDHE_RSA_WITH_AES_128_CBC_SHA, TLS_RSA_WITH_AES_128_CBC_SHA, TLS_DHE_RSA_WITH_AES_128_CBC_SHA, TLS_ECDHE_ECDSA_WITH_AES_256_GCM_SHA384, TLS_ECDHE_ECDSA_WITH_AES_128_GCM_SHA256, TLS_ECDHE_RSA_WITH_AES_256_GCM_SHA384, TLS_RSA_WITH_AES_256_GCM_SHA384, TLS_DHE_RSA_WITH_AES_256_GCM_SHA384, TLS_ECDHE_RSA_WITH_AES_128_GCM_SHA256, TLS_RSA_WITH_AES_128_GCM_SHA256, TLS_DHE_RSA_WITH_AES_128_GCM_SHA256, TLS_EMPTY_RENEGOTIATION_INFO_SCSV]],
	 currently enabled cipher suites [[TLS_ECDHE_ECDSA_WITH_AES_256_CBC_SHA384, TLS_ECDHE_RSA_WITH_AES_256_CBC_SHA384, TLS_RSA_WITH_AES_256_CBC_SHA256, TLS_DHE_RSA_WITH_AES_256_CBC_SHA256, TLS_ECDHE_ECDSA_WITH_AES_256_CBC_SHA, TLS_ECDHE_RSA_WITH_AES_256_CBC_SHA, TLS_RSA_WITH_AES_256_CBC_SHA, TLS_DHE_RSA_WITH_AES_256_CBC_SHA, TLS_ECDHE_ECDSA_WITH_AES_128_CBC_SHA256, TLS_ECDHE_RSA_WITH_AES_128_CBC_SHA256, TLS_RSA_WITH_AES_128_CBC_SHA256, TLS_DHE_RSA_WITH_AES_128_CBC_SHA256, TLS_ECDHE_ECDSA_WITH_AES_128_CBC_SHA, TLS_ECDHE_RSA_WITH_AES_128_CBC_SHA, TLS_RSA_WITH_AES_128_CBC_SHA, TLS_DHE_RSA_WITH_AES_128_CBC_SHA, TLS_ECDHE_ECDSA_WITH_AES_256_GCM_SHA384, TLS_ECDHE_ECDSA_WITH_AES_128_GCM_SHA256, TLS_ECDHE_RSA_WITH_AES_256_GCM_SHA384, TLS_RSA_WITH_AES_256_GCM_SHA384, TLS_DHE_RSA_WITH_AES_256_GCM_SHA384, TLS_ECDHE_RSA_WITH_AES_128_GCM_SHA256, TLS_RSA_WITH_AES_128_GCM_SHA256, TLS_DHE_RSA_WITH_AES_128_GCM_SHA256, TLS_EMPTY_RENEGOTIATION_INFO_SCSV]],
	 and default cipher suite patterns [Patterns [includes=[.*], excludes=[.*_NULL_.*, .*_anon_.*, .*_EXPORT_.*, .*_DES_.*]]].
	 Resulting enabled cipher suites are [[TLS_ECDHE_ECDSA_WITH_AES_256_CBC_SHA384, TLS_ECDHE_RSA_WITH_AES_256_CBC_SHA384, TLS_RSA_WITH_AES_256_CBC_SHA256, TLS_DHE_RSA_WITH_AES_256_CBC_SHA256, TLS_ECDHE_ECDSA_WITH_AES_256_CBC_SHA, TLS_ECDHE_RSA_WITH_AES_256_CBC_SHA, TLS_RSA_WITH_AES_256_CBC_SHA, TLS_DHE_RSA_WITH_AES_256_CBC_SHA, TLS_ECDHE_ECDSA_WITH_AES_128_CBC_SHA256, TLS_ECDHE_RSA_WITH_AES_128_CBC_SHA256, TLS_RSA_WITH_AES_128_CBC_SHA256, TLS_DHE_RSA_WITH_AES_128_CBC_SHA256, TLS_ECDHE_ECDSA_WITH_AES_128_CBC_SHA, TLS_ECDHE_RSA_WITH_AES_128_CBC_SHA, TLS_RSA_WITH_AES_128_CBC_SHA, TLS_DHE_RSA_WITH_AES_128_CBC_SHA, TLS_ECDHE_ECDSA_WITH_AES_256_GCM_SHA384, TLS_ECDHE_ECDSA_WITH_AES_128_GCM_SHA256, TLS_ECDHE_RSA_WITH_AES_256_GCM_SHA384, TLS_RSA_WITH_AES_256_GCM_SHA384, TLS_DHE_RSA_WITH_AES_256_GCM_SHA384, TLS_ECDHE_RSA_WITH_AES_128_GCM_SHA256, TLS_RSA_WITH_AES_128_GCM_SHA256, TLS_DHE_RSA_WITH_AES_128_GCM_SHA256, TLS_EMPTY_RENEGOTIATION_INFO_SCSV]].
18:31:00 DEBUG [or.ap.ca.su.js.BaseSSLContextParameters]] (executor-thread-1) Configuring SSLSocket [53bec99d[SSL_NULL_WITH_NULL_NULL: Socket[unconnected]]] with 
	 explicitly set protocols [null],
	 protocol patterns [null],
	 available protocols [[TLSv1, TLSv1.1, TLSv1.2]],
	 currently enabled protocols [[TLSv1, TLSv1.1, TLSv1.2]],
	 and default protocol patterns [Patterns [includes=[.*], excludes=[SSL.*]]].
	 Resulting enabled protocols are [[TLSv1, TLSv1.1, TLSv1.2]].
18:31:00 DEBUG [or.ap.ca.su.js.BaseSSLContextParameters]] (executor-thread-1) SSLSocketFactory [sun.security.ssl.SSLSocketFactoryImpl@470d286] created from SSLContext [javax.net.ssl.SSLContext@1a0b120d].
18:31:00 DEBUG [or.ap.ca.su.js.BaseSSLContextParameters]] (executor-thread-1) Created Socket [25fb666b[SSL_NULL_WITH_NULL_NULL: Socket[unconnected]]] from SocketFactory [sun.security.ssl.SSLSocketFactoryImpl@470d286].
18:31:00 DEBUG [or.ap.ca.su.js.BaseSSLContextParameters]] (executor-thread-1) Configuring SSLSocket [25fb666b[SSL_NULL_WITH_NULL_NULL: Socket[unconnected]]] with 
	 explicitly set cipher suites [null],
	 cipher suite patterns [null],
	 available cipher suites [[TLS_ECDHE_ECDSA_WITH_AES_256_CBC_SHA384, TLS_ECDHE_RSA_WITH_AES_256_CBC_SHA384, TLS_RSA_WITH_AES_256_CBC_SHA256, TLS_DHE_RSA_WITH_AES_256_CBC_SHA256, TLS_ECDHE_ECDSA_WITH_AES_256_CBC_SHA, TLS_ECDHE_RSA_WITH_AES_256_CBC_SHA, TLS_RSA_WITH_AES_256_CBC_SHA, TLS_DHE_RSA_WITH_AES_256_CBC_SHA, TLS_ECDHE_ECDSA_WITH_AES_128_CBC_SHA256, TLS_ECDHE_RSA_WITH_AES_128_CBC_SHA256, TLS_RSA_WITH_AES_128_CBC_SHA256, TLS_DHE_RSA_WITH_AES_128_CBC_SHA256, TLS_ECDHE_ECDSA_WITH_AES_128_CBC_SHA, TLS_ECDHE_RSA_WITH_AES_128_CBC_SHA, TLS_RSA_WITH_AES_128_CBC_SHA, TLS_DHE_RSA_WITH_AES_128_CBC_SHA, TLS_ECDHE_ECDSA_WITH_AES_256_GCM_SHA384, TLS_ECDHE_ECDSA_WITH_AES_128_GCM_SHA256, TLS_ECDHE_RSA_WITH_AES_256_GCM_SHA384, TLS_RSA_WITH_AES_256_GCM_SHA384, TLS_DHE_RSA_WITH_AES_256_GCM_SHA384, TLS_ECDHE_RSA_WITH_AES_128_GCM_SHA256, TLS_RSA_WITH_AES_128_GCM_SHA256, TLS_DHE_RSA_WITH_AES_128_GCM_SHA256, TLS_EMPTY_RENEGOTIATION_INFO_SCSV]],
	 currently enabled cipher suites [[TLS_ECDHE_ECDSA_WITH_AES_256_CBC_SHA384, TLS_ECDHE_RSA_WITH_AES_256_CBC_SHA384, TLS_RSA_WITH_AES_256_CBC_SHA256, TLS_DHE_RSA_WITH_AES_256_CBC_SHA256, TLS_ECDHE_ECDSA_WITH_AES_256_CBC_SHA, TLS_ECDHE_RSA_WITH_AES_256_CBC_SHA, TLS_RSA_WITH_AES_256_CBC_SHA, TLS_DHE_RSA_WITH_AES_256_CBC_SHA, TLS_ECDHE_ECDSA_WITH_AES_128_CBC_SHA256, TLS_ECDHE_RSA_WITH_AES_128_CBC_SHA256, TLS_RSA_WITH_AES_128_CBC_SHA256, TLS_DHE_RSA_WITH_AES_128_CBC_SHA256, TLS_ECDHE_ECDSA_WITH_AES_128_CBC_SHA, TLS_ECDHE_RSA_WITH_AES_128_CBC_SHA, TLS_RSA_WITH_AES_128_CBC_SHA, TLS_DHE_RSA_WITH_AES_128_CBC_SHA, TLS_ECDHE_ECDSA_WITH_AES_256_GCM_SHA384, TLS_ECDHE_ECDSA_WITH_AES_128_GCM_SHA256, TLS_ECDHE_RSA_WITH_AES_256_GCM_SHA384, TLS_RSA_WITH_AES_256_GCM_SHA384, TLS_DHE_RSA_WITH_AES_256_GCM_SHA384, TLS_ECDHE_RSA_WITH_AES_128_GCM_SHA256, TLS_RSA_WITH_AES_128_GCM_SHA256, TLS_DHE_RSA_WITH_AES_128_GCM_SHA256, TLS_EMPTY_RENEGOTIATION_INFO_SCSV]],
	 and default cipher suite patterns [Patterns [includes=[.*], excludes=[.*_NULL_.*, .*_anon_.*, .*_EXPORT_.*, .*_DES_.*]]].
	 Resulting enabled cipher suites are [[TLS_ECDHE_ECDSA_WITH_AES_256_CBC_SHA384, TLS_ECDHE_RSA_WITH_AES_256_CBC_SHA384, TLS_RSA_WITH_AES_256_CBC_SHA256, TLS_DHE_RSA_WITH_AES_256_CBC_SHA256, TLS_ECDHE_ECDSA_WITH_AES_256_CBC_SHA, TLS_ECDHE_RSA_WITH_AES_256_CBC_SHA, TLS_RSA_WITH_AES_256_CBC_SHA, TLS_DHE_RSA_WITH_AES_256_CBC_SHA, TLS_ECDHE_ECDSA_WITH_AES_128_CBC_SHA256, TLS_ECDHE_RSA_WITH_AES_128_CBC_SHA256, TLS_RSA_WITH_AES_128_CBC_SHA256, TLS_DHE_RSA_WITH_AES_128_CBC_SHA256, TLS_ECDHE_ECDSA_WITH_AES_128_CBC_SHA, TLS_ECDHE_RSA_WITH_AES_128_CBC_SHA, TLS_RSA_WITH_AES_128_CBC_SHA, TLS_DHE_RSA_WITH_AES_128_CBC_SHA, TLS_ECDHE_ECDSA_WITH_AES_256_GCM_SHA384, TLS_ECDHE_ECDSA_WITH_AES_128_GCM_SHA256, TLS_ECDHE_RSA_WITH_AES_256_GCM_SHA384, TLS_RSA_WITH_AES_256_GCM_SHA384, TLS_DHE_RSA_WITH_AES_256_GCM_SHA384, TLS_ECDHE_RSA_WITH_AES_128_GCM_SHA256, TLS_RSA_WITH_AES_128_GCM_SHA256, TLS_DHE_RSA_WITH_AES_128_GCM_SHA256, TLS_EMPTY_RENEGOTIATION_INFO_SCSV]].
18:31:00 DEBUG [or.ap.ca.su.js.BaseSSLContextParameters]] (executor-thread-1) Configuring SSLSocket [25fb666b[SSL_NULL_WITH_NULL_NULL: Socket[unconnected]]] with 
	 explicitly set protocols [null],
	 protocol patterns [null],
	 available protocols [[TLSv1, TLSv1.1, TLSv1.2]],
	 currently enabled protocols [[TLSv1, TLSv1.1, TLSv1.2]],
	 and default protocol patterns [Patterns [includes=[.*], excludes=[SSL.*]]].
	 Resulting enabled protocols are [[TLSv1, TLSv1.1, TLSv1.2]].
18:31:00 DEBUG [or.ap.ca.su.js.BaseSSLContextParameters]] (executor-thread-1) SSLSocketFactory [sun.security.ssl.SSLSocketFactoryImpl@30a7d0c5] created from SSLContext [javax.net.ssl.SSLContext@1a0b120d].
18:31:00 DEBUG [or.ap.ca.su.js.BaseSSLContextParameters]] (executor-thread-1) Created Socket [1fe57e7a[SSL_NULL_WITH_NULL_NULL: Socket[unconnected]]] from SocketFactory [sun.security.ssl.SSLSocketFactoryImpl@30a7d0c5].
18:31:00 DEBUG [or.ap.ca.su.js.BaseSSLContextParameters]] (executor-thread-1) Configuring SSLSocket [1fe57e7a[SSL_NULL_WITH_NULL_NULL: Socket[unconnected]]] with 
	 explicitly set cipher suites [null],
	 cipher suite patterns [null],
	 available cipher suites [[TLS_ECDHE_ECDSA_WITH_AES_256_CBC_SHA384, TLS_ECDHE_RSA_WITH_AES_256_CBC_SHA384, TLS_RSA_WITH_AES_256_CBC_SHA256, TLS_DHE_RSA_WITH_AES_256_CBC_SHA256, TLS_ECDHE_ECDSA_WITH_AES_256_CBC_SHA, TLS_ECDHE_RSA_WITH_AES_256_CBC_SHA, TLS_RSA_WITH_AES_256_CBC_SHA, TLS_DHE_RSA_WITH_AES_256_CBC_SHA, TLS_ECDHE_ECDSA_WITH_AES_128_CBC_SHA256, TLS_ECDHE_RSA_WITH_AES_128_CBC_SHA256, TLS_RSA_WITH_AES_128_CBC_SHA256, TLS_DHE_RSA_WITH_AES_128_CBC_SHA256, TLS_ECDHE_ECDSA_WITH_AES_128_CBC_SHA, TLS_ECDHE_RSA_WITH_AES_128_CBC_SHA, TLS_RSA_WITH_AES_128_CBC_SHA, TLS_DHE_RSA_WITH_AES_128_CBC_SHA, TLS_ECDHE_ECDSA_WITH_AES_256_GCM_SHA384, TLS_ECDHE_ECDSA_WITH_AES_128_GCM_SHA256, TLS_ECDHE_RSA_WITH_AES_256_GCM_SHA384, TLS_RSA_WITH_AES_256_GCM_SHA384, TLS_DHE_RSA_WITH_AES_256_GCM_SHA384, TLS_ECDHE_RSA_WITH_AES_128_GCM_SHA256, TLS_RSA_WITH_AES_128_GCM_SHA256, TLS_DHE_RSA_WITH_AES_128_GCM_SHA256, TLS_EMPTY_RENEGOTIATION_INFO_SCSV]],
	 currently enabled cipher suites [[TLS_ECDHE_ECDSA_WITH_AES_256_CBC_SHA384, TLS_ECDHE_RSA_WITH_AES_256_CBC_SHA384, TLS_RSA_WITH_AES_256_CBC_SHA256, TLS_DHE_RSA_WITH_AES_256_CBC_SHA256, TLS_ECDHE_ECDSA_WITH_AES_256_CBC_SHA, TLS_ECDHE_RSA_WITH_AES_256_CBC_SHA, TLS_RSA_WITH_AES_256_CBC_SHA, TLS_DHE_RSA_WITH_AES_256_CBC_SHA, TLS_ECDHE_ECDSA_WITH_AES_128_CBC_SHA256, TLS_ECDHE_RSA_WITH_AES_128_CBC_SHA256, TLS_RSA_WITH_AES_128_CBC_SHA256, TLS_DHE_RSA_WITH_AES_128_CBC_SHA256, TLS_ECDHE_ECDSA_WITH_AES_128_CBC_SHA, TLS_ECDHE_RSA_WITH_AES_128_CBC_SHA, TLS_RSA_WITH_AES_128_CBC_SHA, TLS_DHE_RSA_WITH_AES_128_CBC_SHA, TLS_ECDHE_ECDSA_WITH_AES_256_GCM_SHA384, TLS_ECDHE_ECDSA_WITH_AES_128_GCM_SHA256, TLS_ECDHE_RSA_WITH_AES_256_GCM_SHA384, TLS_RSA_WITH_AES_256_GCM_SHA384, TLS_DHE_RSA_WITH_AES_256_GCM_SHA384, TLS_ECDHE_RSA_WITH_AES_128_GCM_SHA256, TLS_RSA_WITH_AES_128_GCM_SHA256, TLS_DHE_RSA_WITH_AES_128_GCM_SHA256, TLS_EMPTY_RENEGOTIATION_INFO_SCSV]],
	 and default cipher suite patterns [Patterns [includes=[.*], excludes=[.*_NULL_.*, .*_anon_.*, .*_EXPORT_.*, .*_DES_.*]]].
	 Resulting enabled cipher suites are [[TLS_ECDHE_ECDSA_WITH_AES_256_CBC_SHA384, TLS_ECDHE_RSA_WITH_AES_256_CBC_SHA384, TLS_RSA_WITH_AES_256_CBC_SHA256, TLS_DHE_RSA_WITH_AES_256_CBC_SHA256, TLS_ECDHE_ECDSA_WITH_AES_256_CBC_SHA, TLS_ECDHE_RSA_WITH_AES_256_CBC_SHA, TLS_RSA_WITH_AES_256_CBC_SHA, TLS_DHE_RSA_WITH_AES_256_CBC_SHA, TLS_ECDHE_ECDSA_WITH_AES_128_CBC_SHA256, TLS_ECDHE_RSA_WITH_AES_128_CBC_SHA256, TLS_RSA_WITH_AES_128_CBC_SHA256, TLS_DHE_RSA_WITH_AES_128_CBC_SHA256, TLS_ECDHE_ECDSA_WITH_AES_128_CBC_SHA, TLS_ECDHE_RSA_WITH_AES_128_CBC_SHA, TLS_RSA_WITH_AES_128_CBC_SHA, TLS_DHE_RSA_WITH_AES_128_CBC_SHA, TLS_ECDHE_ECDSA_WITH_AES_256_GCM_SHA384, TLS_ECDHE_ECDSA_WITH_AES_128_GCM_SHA256, TLS_ECDHE_RSA_WITH_AES_256_GCM_SHA384, TLS_RSA_WITH_AES_256_GCM_SHA384, TLS_DHE_RSA_WITH_AES_256_GCM_SHA384, TLS_ECDHE_RSA_WITH_AES_128_GCM_SHA256, TLS_RSA_WITH_AES_128_GCM_SHA256, TLS_DHE_RSA_WITH_AES_128_GCM_SHA256, TLS_EMPTY_RENEGOTIATION_INFO_SCSV]].
18:31:00 DEBUG [or.ap.ca.su.js.BaseSSLContextParameters]] (executor-thread-1) Configuring SSLSocket [1fe57e7a[SSL_NULL_WITH_NULL_NULL: Socket[unconnected]]] with 
	 explicitly set protocols [null],
	 protocol patterns [null],
	 available protocols [[TLSv1, TLSv1.1, TLSv1.2]],
	 currently enabled protocols [[TLSv1, TLSv1.1, TLSv1.2]],
	 and default protocol patterns [Patterns [includes=[.*], excludes=[SSL.*]]].
	 Resulting enabled protocols are [[TLSv1, TLSv1.1, TLSv1.2]].
18:31:00 DEBUG [or.ap.ca.su.js.BaseSSLContextParameters]] (executor-thread-1) SSLSocketFactory [sun.security.ssl.SSLSocketFactoryImpl@18ec1ff1] created from SSLContext [javax.net.ssl.SSLContext@1a0b120d].
18:31:00 DEBUG [or.ap.ca.su.js.BaseSSLContextParameters]] (executor-thread-1) Created Socket [6f68dba9[SSL_NULL_WITH_NULL_NULL: Socket[unconnected]]] from SocketFactory [sun.security.ssl.SSLSocketFactoryImpl@18ec1ff1].
18:31:00 DEBUG [or.ap.ca.su.js.BaseSSLContextParameters]] (executor-thread-1) Configuring SSLSocket [6f68dba9[SSL_NULL_WITH_NULL_NULL: Socket[unconnected]]] with 
	 explicitly set cipher suites [null],
	 cipher suite patterns [null],
	 available cipher suites [[TLS_ECDHE_ECDSA_WITH_AES_256_CBC_SHA384, TLS_ECDHE_RSA_WITH_AES_256_CBC_SHA384, TLS_RSA_WITH_AES_256_CBC_SHA256, TLS_DHE_RSA_WITH_AES_256_CBC_SHA256, TLS_ECDHE_ECDSA_WITH_AES_256_CBC_SHA, TLS_ECDHE_RSA_WITH_AES_256_CBC_SHA, TLS_RSA_WITH_AES_256_CBC_SHA, TLS_DHE_RSA_WITH_AES_256_CBC_SHA, TLS_ECDHE_ECDSA_WITH_AES_128_CBC_SHA256, TLS_ECDHE_RSA_WITH_AES_128_CBC_SHA256, TLS_RSA_WITH_AES_128_CBC_SHA256, TLS_DHE_RSA_WITH_AES_128_CBC_SHA256, TLS_ECDHE_ECDSA_WITH_AES_128_CBC_SHA, TLS_ECDHE_RSA_WITH_AES_128_CBC_SHA, TLS_RSA_WITH_AES_128_CBC_SHA, TLS_DHE_RSA_WITH_AES_128_CBC_SHA, TLS_ECDHE_ECDSA_WITH_AES_256_GCM_SHA384, TLS_ECDHE_ECDSA_WITH_AES_128_GCM_SHA256, TLS_ECDHE_RSA_WITH_AES_256_GCM_SHA384, TLS_RSA_WITH_AES_256_GCM_SHA384, TLS_DHE_RSA_WITH_AES_256_GCM_SHA384, TLS_ECDHE_RSA_WITH_AES_128_GCM_SHA256, TLS_RSA_WITH_AES_128_GCM_SHA256, TLS_DHE_RSA_WITH_AES_128_GCM_SHA256, TLS_EMPTY_RENEGOTIATION_INFO_SCSV]],
	 currently enabled cipher suites [[TLS_ECDHE_ECDSA_WITH_AES_256_CBC_SHA384, TLS_ECDHE_RSA_WITH_AES_256_CBC_SHA384, TLS_RSA_WITH_AES_256_CBC_SHA256, TLS_DHE_RSA_WITH_AES_256_CBC_SHA256, TLS_ECDHE_ECDSA_WITH_AES_256_CBC_SHA, TLS_ECDHE_RSA_WITH_AES_256_CBC_SHA, TLS_RSA_WITH_AES_256_CBC_SHA, TLS_DHE_RSA_WITH_AES_256_CBC_SHA, TLS_ECDHE_ECDSA_WITH_AES_128_CBC_SHA256, TLS_ECDHE_RSA_WITH_AES_128_CBC_SHA256, TLS_RSA_WITH_AES_128_CBC_SHA256, TLS_DHE_RSA_WITH_AES_128_CBC_SHA256, TLS_ECDHE_ECDSA_WITH_AES_128_CBC_SHA, TLS_ECDHE_RSA_WITH_AES_128_CBC_SHA, TLS_RSA_WITH_AES_128_CBC_SHA, TLS_DHE_RSA_WITH_AES_128_CBC_SHA, TLS_ECDHE_ECDSA_WITH_AES_256_GCM_SHA384, TLS_ECDHE_ECDSA_WITH_AES_128_GCM_SHA256, TLS_ECDHE_RSA_WITH_AES_256_GCM_SHA384, TLS_RSA_WITH_AES_256_GCM_SHA384, TLS_DHE_RSA_WITH_AES_256_GCM_SHA384, TLS_ECDHE_RSA_WITH_AES_128_GCM_SHA256, TLS_RSA_WITH_AES_128_GCM_SHA256, TLS_DHE_RSA_WITH_AES_128_GCM_SHA256, TLS_EMPTY_RENEGOTIATION_INFO_SCSV]],
	 and default cipher suite patterns [Patterns [includes=[.*], excludes=[.*_NULL_.*, .*_anon_.*, .*_EXPORT_.*, .*_DES_.*]]].
	 Resulting enabled cipher suites are [[TLS_ECDHE_ECDSA_WITH_AES_256_CBC_SHA384, TLS_ECDHE_RSA_WITH_AES_256_CBC_SHA384, TLS_RSA_WITH_AES_256_CBC_SHA256, TLS_DHE_RSA_WITH_AES_256_CBC_SHA256, TLS_ECDHE_ECDSA_WITH_AES_256_CBC_SHA, TLS_ECDHE_RSA_WITH_AES_256_CBC_SHA, TLS_RSA_WITH_AES_256_CBC_SHA, TLS_DHE_RSA_WITH_AES_256_CBC_SHA, TLS_ECDHE_ECDSA_WITH_AES_128_CBC_SHA256, TLS_ECDHE_RSA_WITH_AES_128_CBC_SHA256, TLS_RSA_WITH_AES_128_CBC_SHA256, TLS_DHE_RSA_WITH_AES_128_CBC_SHA256, TLS_ECDHE_ECDSA_WITH_AES_128_CBC_SHA, TLS_ECDHE_RSA_WITH_AES_128_CBC_SHA, TLS_RSA_WITH_AES_128_CBC_SHA, TLS_DHE_RSA_WITH_AES_128_CBC_SHA, TLS_ECDHE_ECDSA_WITH_AES_256_GCM_SHA384, TLS_ECDHE_ECDSA_WITH_AES_128_GCM_SHA256, TLS_ECDHE_RSA_WITH_AES_256_GCM_SHA384, TLS_RSA_WITH_AES_256_GCM_SHA384, TLS_DHE_RSA_WITH_AES_256_GCM_SHA384, TLS_ECDHE_RSA_WITH_AES_128_GCM_SHA256, TLS_RSA_WITH_AES_128_GCM_SHA256, TLS_DHE_RSA_WITH_AES_128_GCM_SHA256, TLS_EMPTY_RENEGOTIATION_INFO_SCSV]].
18:31:00 DEBUG [or.ap.ca.su.js.BaseSSLContextParameters]] (executor-thread-1) Configuring SSLSocket [6f68dba9[SSL_NULL_WITH_NULL_NULL: Socket[unconnected]]] with 
	 explicitly set protocols [null],
	 protocol patterns [null],
	 available protocols [[TLSv1, TLSv1.1, TLSv1.2]],
	 currently enabled protocols [[TLSv1, TLSv1.1, TLSv1.2]],
	 and default protocol patterns [Patterns [includes=[.*], excludes=[SSL.*]]].
	 Resulting enabled protocols are [[TLSv1, TLSv1.1, TLSv1.2]].
18:31:00 DEBUG [or.ap.ca.su.js.BaseSSLContextParameters]] (executor-thread-1) SSLSocketFactory [sun.security.ssl.SSLSocketFactoryImpl@17742eff] created from SSLContext [javax.net.ssl.SSLContext@1a0b120d].
18:31:00 DEBUG [or.ap.ca.su.js.BaseSSLContextParameters]] (executor-thread-1) Created Socket [73843c2c[SSL_NULL_WITH_NULL_NULL: Socket[unconnected]]] from SocketFactory [sun.security.ssl.SSLSocketFactoryImpl@17742eff].
18:31:00 DEBUG [or.ap.ca.su.js.BaseSSLContextParameters]] (executor-thread-1) Configuring SSLSocket [73843c2c[SSL_NULL_WITH_NULL_NULL: Socket[unconnected]]] with 
	 explicitly set cipher suites [null],
	 cipher suite patterns [null],
	 available cipher suites [[TLS_ECDHE_ECDSA_WITH_AES_256_CBC_SHA384, TLS_ECDHE_RSA_WITH_AES_256_CBC_SHA384, TLS_RSA_WITH_AES_256_CBC_SHA256, TLS_DHE_RSA_WITH_AES_256_CBC_SHA256, TLS_ECDHE_ECDSA_WITH_AES_256_CBC_SHA, TLS_ECDHE_RSA_WITH_AES_256_CBC_SHA, TLS_RSA_WITH_AES_256_CBC_SHA, TLS_DHE_RSA_WITH_AES_256_CBC_SHA, TLS_ECDHE_ECDSA_WITH_AES_128_CBC_SHA256, TLS_ECDHE_RSA_WITH_AES_128_CBC_SHA256, TLS_RSA_WITH_AES_128_CBC_SHA256, TLS_DHE_RSA_WITH_AES_128_CBC_SHA256, TLS_ECDHE_ECDSA_WITH_AES_128_CBC_SHA, TLS_ECDHE_RSA_WITH_AES_128_CBC_SHA, TLS_RSA_WITH_AES_128_CBC_SHA, TLS_DHE_RSA_WITH_AES_128_CBC_SHA, TLS_ECDHE_ECDSA_WITH_AES_256_GCM_SHA384, TLS_ECDHE_ECDSA_WITH_AES_128_GCM_SHA256, TLS_ECDHE_RSA_WITH_AES_256_GCM_SHA384, TLS_RSA_WITH_AES_256_GCM_SHA384, TLS_DHE_RSA_WITH_AES_256_GCM_SHA384, TLS_ECDHE_RSA_WITH_AES_128_GCM_SHA256, TLS_RSA_WITH_AES_128_GCM_SHA256, TLS_DHE_RSA_WITH_AES_128_GCM_SHA256, TLS_EMPTY_RENEGOTIATION_INFO_SCSV]],
	 currently enabled cipher suites [[TLS_ECDHE_ECDSA_WITH_AES_256_CBC_SHA384, TLS_ECDHE_RSA_WITH_AES_256_CBC_SHA384, TLS_RSA_WITH_AES_256_CBC_SHA256, TLS_DHE_RSA_WITH_AES_256_CBC_SHA256, TLS_ECDHE_ECDSA_WITH_AES_256_CBC_SHA, TLS_ECDHE_RSA_WITH_AES_256_CBC_SHA, TLS_RSA_WITH_AES_256_CBC_SHA, TLS_DHE_RSA_WITH_AES_256_CBC_SHA, TLS_ECDHE_ECDSA_WITH_AES_128_CBC_SHA256, TLS_ECDHE_RSA_WITH_AES_128_CBC_SHA256, TLS_RSA_WITH_AES_128_CBC_SHA256, TLS_DHE_RSA_WITH_AES_128_CBC_SHA256, TLS_ECDHE_ECDSA_WITH_AES_128_CBC_SHA, TLS_ECDHE_RSA_WITH_AES_128_CBC_SHA, TLS_RSA_WITH_AES_128_CBC_SHA, TLS_DHE_RSA_WITH_AES_128_CBC_SHA, TLS_ECDHE_ECDSA_WITH_AES_256_GCM_SHA384, TLS_ECDHE_ECDSA_WITH_AES_128_GCM_SHA256, TLS_ECDHE_RSA_WITH_AES_256_GCM_SHA384, TLS_RSA_WITH_AES_256_GCM_SHA384, TLS_DHE_RSA_WITH_AES_256_GCM_SHA384, TLS_ECDHE_RSA_WITH_AES_128_GCM_SHA256, TLS_RSA_WITH_AES_128_GCM_SHA256, TLS_DHE_RSA_WITH_AES_128_GCM_SHA256, TLS_EMPTY_RENEGOTIATION_INFO_SCSV]],
	 and default cipher suite patterns [Patterns [includes=[.*], excludes=[.*_NULL_.*, .*_anon_.*, .*_EXPORT_.*, .*_DES_.*]]].
	 Resulting enabled cipher suites are [[TLS_ECDHE_ECDSA_WITH_AES_256_CBC_SHA384, TLS_ECDHE_RSA_WITH_AES_256_CBC_SHA384, TLS_RSA_WITH_AES_256_CBC_SHA256, TLS_DHE_RSA_WITH_AES_256_CBC_SHA256, TLS_ECDHE_ECDSA_WITH_AES_256_CBC_SHA, TLS_ECDHE_RSA_WITH_AES_256_CBC_SHA, TLS_RSA_WITH_AES_256_CBC_SHA, TLS_DHE_RSA_WITH_AES_256_CBC_SHA, TLS_ECDHE_ECDSA_WITH_AES_128_CBC_SHA256, TLS_ECDHE_RSA_WITH_AES_128_CBC_SHA256, TLS_RSA_WITH_AES_128_CBC_SHA256, TLS_DHE_RSA_WITH_AES_128_CBC_SHA256, TLS_ECDHE_ECDSA_WITH_AES_128_CBC_SHA, TLS_ECDHE_RSA_WITH_AES_128_CBC_SHA, TLS_RSA_WITH_AES_128_CBC_SHA, TLS_DHE_RSA_WITH_AES_128_CBC_SHA, TLS_ECDHE_ECDSA_WITH_AES_256_GCM_SHA384, TLS_ECDHE_ECDSA_WITH_AES_128_GCM_SHA256, TLS_ECDHE_RSA_WITH_AES_256_GCM_SHA384, TLS_RSA_WITH_AES_256_GCM_SHA384, TLS_DHE_RSA_WITH_AES_256_GCM_SHA384, TLS_ECDHE_RSA_WITH_AES_128_GCM_SHA256, TLS_RSA_WITH_AES_128_GCM_SHA256, TLS_DHE_RSA_WITH_AES_128_GCM_SHA256, TLS_EMPTY_RENEGOTIATION_INFO_SCSV]].
18:31:00 DEBUG [or.ap.ca.su.js.BaseSSLContextParameters]] (executor-thread-1) Configuring SSLSocket [73843c2c[SSL_NULL_WITH_NULL_NULL: Socket[unconnected]]] with 
	 explicitly set protocols [null],
	 protocol patterns [null],
	 available protocols [[TLSv1, TLSv1.1, TLSv1.2]],
	 currently enabled protocols [[TLSv1, TLSv1.1, TLSv1.2]],
	 and default protocol patterns [Patterns [includes=[.*], excludes=[SSL.*]]].
	 Resulting enabled protocols are [[TLSv1, TLSv1.1, TLSv1.2]].
18:31:00 DEBUG [or.ap.ca.su.js.BaseSSLContextParameters]] (executor-thread-1) SSLSocketFactory [sun.security.ssl.SSLSocketFactoryImpl@5f4ff59f] created from SSLContext [javax.net.ssl.SSLContext@1a0b120d].
18:31:00 DEBUG [or.ap.ca.su.js.BaseSSLContextParameters]] (executor-thread-1) Created Socket [5ea47b2e[SSL_NULL_WITH_NULL_NULL: Socket[unconnected]]] from SocketFactory [sun.security.ssl.SSLSocketFactoryImpl@5f4ff59f].
18:31:00 DEBUG [or.ap.ca.su.js.BaseSSLContextParameters]] (executor-thread-1) Configuring SSLSocket [5ea47b2e[SSL_NULL_WITH_NULL_NULL: Socket[unconnected]]] with 
	 explicitly set cipher suites [null],
	 cipher suite patterns [null],
	 available cipher suites [[TLS_ECDHE_ECDSA_WITH_AES_256_CBC_SHA384, TLS_ECDHE_RSA_WITH_AES_256_CBC_SHA384, TLS_RSA_WITH_AES_256_CBC_SHA256, TLS_DHE_RSA_WITH_AES_256_CBC_SHA256, TLS_ECDHE_ECDSA_WITH_AES_256_CBC_SHA, TLS_ECDHE_RSA_WITH_AES_256_CBC_SHA, TLS_RSA_WITH_AES_256_CBC_SHA, TLS_DHE_RSA_WITH_AES_256_CBC_SHA, TLS_ECDHE_ECDSA_WITH_AES_128_CBC_SHA256, TLS_ECDHE_RSA_WITH_AES_128_CBC_SHA256, TLS_RSA_WITH_AES_128_CBC_SHA256, TLS_DHE_RSA_WITH_AES_128_CBC_SHA256, TLS_ECDHE_ECDSA_WITH_AES_128_CBC_SHA, TLS_ECDHE_RSA_WITH_AES_128_CBC_SHA, TLS_RSA_WITH_AES_128_CBC_SHA, TLS_DHE_RSA_WITH_AES_128_CBC_SHA, TLS_ECDHE_ECDSA_WITH_AES_256_GCM_SHA384, TLS_ECDHE_ECDSA_WITH_AES_128_GCM_SHA256, TLS_ECDHE_RSA_WITH_AES_256_GCM_SHA384, TLS_RSA_WITH_AES_256_GCM_SHA384, TLS_DHE_RSA_WITH_AES_256_GCM_SHA384, TLS_ECDHE_RSA_WITH_AES_128_GCM_SHA256, TLS_RSA_WITH_AES_128_GCM_SHA256, TLS_DHE_RSA_WITH_AES_128_GCM_SHA256, TLS_EMPTY_RENEGOTIATION_INFO_SCSV]],
	 currently enabled cipher suites [[TLS_ECDHE_ECDSA_WITH_AES_256_CBC_SHA384, TLS_ECDHE_RSA_WITH_AES_256_CBC_SHA384, TLS_RSA_WITH_AES_256_CBC_SHA256, TLS_DHE_RSA_WITH_AES_256_CBC_SHA256, TLS_ECDHE_ECDSA_WITH_AES_256_CBC_SHA, TLS_ECDHE_RSA_WITH_AES_256_CBC_SHA, TLS_RSA_WITH_AES_256_CBC_SHA, TLS_DHE_RSA_WITH_AES_256_CBC_SHA, TLS_ECDHE_ECDSA_WITH_AES_128_CBC_SHA256, TLS_ECDHE_RSA_WITH_AES_128_CBC_SHA256, TLS_RSA_WITH_AES_128_CBC_SHA256, TLS_DHE_RSA_WITH_AES_128_CBC_SHA256, TLS_ECDHE_ECDSA_WITH_AES_128_CBC_SHA, TLS_ECDHE_RSA_WITH_AES_128_CBC_SHA, TLS_RSA_WITH_AES_128_CBC_SHA, TLS_DHE_RSA_WITH_AES_128_CBC_SHA, TLS_ECDHE_ECDSA_WITH_AES_256_GCM_SHA384, TLS_ECDHE_ECDSA_WITH_AES_128_GCM_SHA256, TLS_ECDHE_RSA_WITH_AES_256_GCM_SHA384, TLS_RSA_WITH_AES_256_GCM_SHA384, TLS_DHE_RSA_WITH_AES_256_GCM_SHA384, TLS_ECDHE_RSA_WITH_AES_128_GCM_SHA256, TLS_RSA_WITH_AES_128_GCM_SHA256, TLS_DHE_RSA_WITH_AES_128_GCM_SHA256, TLS_EMPTY_RENEGOTIATION_INFO_SCSV]],
	 and default cipher suite patterns [Patterns [includes=[.*], excludes=[.*_NULL_.*, .*_anon_.*, .*_EXPORT_.*, .*_DES_.*]]].
	 Resulting enabled cipher suites are [[TLS_ECDHE_ECDSA_WITH_AES_256_CBC_SHA384, TLS_ECDHE_RSA_WITH_AES_256_CBC_SHA384, TLS_RSA_WITH_AES_256_CBC_SHA256, TLS_DHE_RSA_WITH_AES_256_CBC_SHA256, TLS_ECDHE_ECDSA_WITH_AES_256_CBC_SHA, TLS_ECDHE_RSA_WITH_AES_256_CBC_SHA, TLS_RSA_WITH_AES_256_CBC_SHA, TLS_DHE_RSA_WITH_AES_256_CBC_SHA, TLS_ECDHE_ECDSA_WITH_AES_128_CBC_SHA256, TLS_ECDHE_RSA_WITH_AES_128_CBC_SHA256, TLS_RSA_WITH_AES_128_CBC_SHA256, TLS_DHE_RSA_WITH_AES_128_CBC_SHA256, TLS_ECDHE_ECDSA_WITH_AES_128_CBC_SHA, TLS_ECDHE_RSA_WITH_AES_128_CBC_SHA, TLS_RSA_WITH_AES_128_CBC_SHA, TLS_DHE_RSA_WITH_AES_128_CBC_SHA, TLS_ECDHE_ECDSA_WITH_AES_256_GCM_SHA384, TLS_ECDHE_ECDSA_WITH_AES_128_GCM_SHA256, TLS_ECDHE_RSA_WITH_AES_256_GCM_SHA384, TLS_RSA_WITH_AES_256_GCM_SHA384, TLS_DHE_RSA_WITH_AES_256_GCM_SHA384, TLS_ECDHE_RSA_WITH_AES_128_GCM_SHA256, TLS_RSA_WITH_AES_128_GCM_SHA256, TLS_DHE_RSA_WITH_AES_128_GCM_SHA256, TLS_EMPTY_RENEGOTIATION_INFO_SCSV]].
18:31:00 DEBUG [or.ap.ca.su.js.BaseSSLContextParameters]] (executor-thread-1) Configuring SSLSocket [5ea47b2e[SSL_NULL_WITH_NULL_NULL: Socket[unconnected]]] with 
	 explicitly set protocols [null],
	 protocol patterns [null],
	 available protocols [[TLSv1, TLSv1.1, TLSv1.2]],
	 currently enabled protocols [[TLSv1, TLSv1.1, TLSv1.2]],
	 and default protocol patterns [Patterns [includes=[.*], excludes=[SSL.*]]].
	 Resulting enabled protocols are [[TLSv1, TLSv1.1, TLSv1.2]].
18:31:00 INFO  [or.ap.ca.co.ne.ht.HttpClientInitializerFactory]] (executor-thread-1) Created SslContext SSLContext[hash=5c2123a, provider=SunJSSE version 1.8, protocol=TLS, needClientAuth=false, wantClientAuth=false
	defaultProtocols=TLSv1,TLSv1.1,TLSv1.2
	defaultChiperSuites=TLS_ECDHE_ECDSA_WITH_AES_256_CBC_SHA384,TLS_ECDHE_RSA_WITH_AES_256_CBC_SHA384,TLS_RSA_WITH_AES_256_CBC_SHA256,TLS_DHE_RSA_WITH_AES_256_CBC_SHA256,TLS_ECDHE_ECDSA_WITH_AES_256_CBC_SHA,TLS_ECDHE_RSA_WITH_AES_256_CBC_SHA,TLS_RSA_WITH_AES_256_CBC_SHA,TLS_DHE_RSA_WITH_AES_256_CBC_SHA,TLS_ECDHE_ECDSA_WITH_AES_128_CBC_SHA256,TLS_ECDHE_RSA_WITH_AES_128_CBC_SHA256,TLS_RSA_WITH_AES_128_CBC_SHA256,TLS_DHE_RSA_WITH_AES_128_CBC_SHA256,TLS_ECDHE_ECDSA_WITH_AES_128_CBC_SHA,TLS_ECDHE_RSA_WITH_AES_128_CBC_SHA,TLS_RSA_WITH_AES_128_CBC_SHA,TLS_DHE_RSA_WITH_AES_128_CBC_SHA,TLS_ECDHE_ECDSA_WITH_AES_256_GCM_SHA384,TLS_ECDHE_ECDSA_WITH_AES_128_GCM_SHA256,TLS_ECDHE_RSA_WITH_AES_256_GCM_SHA384,TLS_RSA_WITH_AES_256_GCM_SHA384,TLS_DHE_RSA_WITH_AES_256_GCM_SHA384,TLS_ECDHE_RSA_WITH_AES_128_GCM_SHA256,TLS_RSA_WITH_AES_128_GCM_SHA256,TLS_DHE_RSA_WITH_AES_128_GCM_SHA256,TLS_EMPTY_RENEGOTIATION_INFO_SCSV
	supportedProtocols=SSLv2Hello,SSLv3,TLSv1,TLSv1.1,TLSv1.2
	supportedChiperSuites=TLS_ECDHE_ECDSA_WITH_AES_256_CBC_SHA384,TLS_ECDHE_RSA_WITH_AES_256_CBC_SHA384,TLS_RSA_WITH_AES_256_CBC_SHA256,TLS_DHE_RSA_WITH_AES_256_CBC_SHA256,TLS_ECDHE_ECDSA_WITH_AES_256_CBC_SHA,TLS_ECDHE_RSA_WITH_AES_256_CBC_SHA,TLS_RSA_WITH_AES_256_CBC_SHA,TLS_DHE_RSA_WITH_AES_256_CBC_SHA,TLS_ECDHE_ECDSA_WITH_AES_128_CBC_SHA256,TLS_ECDHE_RSA_WITH_AES_128_CBC_SHA256,TLS_RSA_WITH_AES_128_CBC_SHA256,TLS_DHE_RSA_WITH_AES_128_CBC_SHA256,TLS_ECDHE_ECDSA_WITH_AES_128_CBC_SHA,TLS_ECDHE_RSA_WITH_AES_128_CBC_SHA,TLS_RSA_WITH_AES_128_CBC_SHA,TLS_DHE_RSA_WITH_AES_128_CBC_SHA,TLS_ECDHE_ECDSA_WITH_AES_256_GCM_SHA384,TLS_ECDHE_ECDSA_WITH_AES_128_GCM_SHA256,TLS_ECDHE_RSA_WITH_AES_256_GCM_SHA384,TLS_RSA_WITH_AES_256_GCM_SHA384,TLS_DHE_RSA_WITH_AES_256_GCM_SHA384,TLS_ECDHE_RSA_WITH_AES_128_GCM_SHA256,TLS_RSA_WITH_AES_128_GCM_SHA256,TLS_DHE_RSA_WITH_AES_128_GCM_SHA256,TLS_EMPTY_RENEGOTIATION_INFO_SCSV,TLS_RSA_WITH_NULL_SHA256,TLS_ECDHE_ECDSA_WITH_NULL_SHA,TLS_ECDHE_RSA_WITH_NULL_SHA,SSL_RSA_WITH_NULL_SHA
]
18:31:00 DEBUG [or.ap.ca.im.RouteService]] (executor-thread-1) Starting child service on route: route1 -> Pipeline[[Channel[Log(null)[Trying to connect to the OpenWeatherMap to get current weather data]], Channel[SetHeader(CamelHttpMethod, GET)], Channel[DelegateSync[org.tenkichannel.weather.api.gateway.routes.openweathermap.QueryRequestProcessor_ClientProxy@343f69b7]], Channel[Log(null)[Headers defined: ${in.headers}]], Channel[SetBody(null)], Channel[Try {Channel[sendTo(https://api.openweathermap.org/data/2.5/weather)]} Catches {[Catch[[class org.apache.camel.CamelException] -> Pipeline[[Channel[Log(null)[Impossible to send message to external Weather API: ${body}]], Channel[SetBody({ 'error' : 'true' })], Channel[Log(null)[Body response from API call ${body}]]]]]]} Finally {Finally{Processor is null}}]]]
18:31:00 DEBUG [or.ap.ca.im.RouteService]] (executor-thread-1) Starting child service on route: route1 -> Log(null)[Trying to connect to the OpenWeatherMap to get current weather data]
18:31:00 DEBUG [or.ap.ca.im.RouteService]] (executor-thread-1) Starting child service on route: route1 -> Channel[Log(null)[Trying to connect to the OpenWeatherMap to get current weather data]]
18:31:00 DEBUG [or.ap.ca.im.RouteService]] (executor-thread-1) Starting child service on route: route1 -> SetHeader(CamelHttpMethod, GET)
18:31:00 DEBUG [or.ap.ca.im.RouteService]] (executor-thread-1) Starting child service on route: route1 -> Channel[SetHeader(CamelHttpMethod, GET)]
18:31:00 DEBUG [or.ap.ca.im.RouteService]] (executor-thread-1) Starting child service on route: route1 -> DelegateSync[org.tenkichannel.weather.api.gateway.routes.openweathermap.QueryRequestProcessor_ClientProxy@343f69b7]
18:31:00 DEBUG [or.ap.ca.im.RouteService]] (executor-thread-1) Starting child service on route: route1 -> Channel[DelegateSync[org.tenkichannel.weather.api.gateway.routes.openweathermap.QueryRequestProcessor_ClientProxy@343f69b7]]
18:31:00 DEBUG [or.ap.ca.im.RouteService]] (executor-thread-1) Starting child service on route: route1 -> Log(null)[Headers defined: ${in.headers}]
18:31:00 DEBUG [or.ap.ca.im.RouteService]] (executor-thread-1) Starting child service on route: route1 -> Channel[Log(null)[Headers defined: ${in.headers}]]
18:31:00 DEBUG [or.ap.ca.im.RouteService]] (executor-thread-1) Starting child service on route: route1 -> SetBody(null)
18:31:00 DEBUG [or.ap.ca.im.RouteService]] (executor-thread-1) Starting child service on route: route1 -> Channel[SetBody(null)]
18:31:00 DEBUG [or.ap.ca.im.RouteService]] (executor-thread-1) Starting child service on route: route1 -> Try {Channel[sendTo(https://api.openweathermap.org/data/2.5/weather)]} Catches {[Catch[[class org.apache.camel.CamelException] -> Pipeline[[Channel[Log(null)[Impossible to send message to external Weather API: ${body}]], Channel[SetBody({ 'error' : 'true' })], Channel[Log(null)[Body response from API call ${body}]]]]]]} Finally {Finally{Processor is null}}
18:31:00 DEBUG [or.ap.ca.im.RouteService]] (executor-thread-1) Starting child service on route: route1 -> Channel[Try {Channel[sendTo(https://api.openweathermap.org/data/2.5/weather)]} Catches {[Catch[[class org.apache.camel.CamelException] -> Pipeline[[Channel[Log(null)[Impossible to send message to external Weather API: ${body}]], Channel[SetBody({ 'error' : 'true' })], Channel[Log(null)[Body response from API call ${body}]]]]]]} Finally {Finally{Processor is null}}]
18:31:00 DEBUG [or.ap.ca.im.RouteService]] (executor-thread-1) Starting child service on route: route1 -> sendTo(https://api.openweathermap.org/data/2.5/weather)
18:31:00 DEBUG [or.ap.ca.im.RouteService]] (executor-thread-1) Starting child service on route: route1 -> Channel[sendTo(https://api.openweathermap.org/data/2.5/weather)]
18:31:00 DEBUG [or.ap.ca.im.RouteService]] (executor-thread-1) Starting child service on route: route1 -> Catch[[class org.apache.camel.CamelException] -> Pipeline[[Channel[Log(null)[Impossible to send message to external Weather API: ${body}]], Channel[SetBody({ 'error' : 'true' })], Channel[Log(null)[Body response from API call ${body}]]]]]
18:31:00 DEBUG [or.ap.ca.im.RouteService]] (executor-thread-1) Starting child service on route: route1 -> Pipeline[[Channel[Log(null)[Impossible to send message to external Weather API: ${body}]], Channel[SetBody({ 'error' : 'true' })], Channel[Log(null)[Body response from API call ${body}]]]]
18:31:00 DEBUG [or.ap.ca.im.RouteService]] (executor-thread-1) Starting child service on route: route1 -> Log(null)[Impossible to send message to external Weather API: ${body}]
18:31:00 DEBUG [or.ap.ca.im.RouteService]] (executor-thread-1) Starting child service on route: route1 -> Channel[Log(null)[Impossible to send message to external Weather API: ${body}]]
18:31:00 DEBUG [or.ap.ca.im.RouteService]] (executor-thread-1) Starting child service on route: route1 -> SetBody({ 'error' : 'true' })
18:31:00 DEBUG [or.ap.ca.im.RouteService]] (executor-thread-1) Starting child service on route: route1 -> Channel[SetBody({ 'error' : 'true' })]
18:31:00 DEBUG [or.ap.ca.im.RouteService]] (executor-thread-1) Starting child service on route: route1 -> Log(null)[Body response from API call ${body}]
18:31:00 DEBUG [or.ap.ca.im.RouteService]] (executor-thread-1) Starting child service on route: route1 -> Channel[Log(null)[Body response from API call ${body}]]
18:31:00 DEBUG [or.ap.ca.im.RouteService]] (executor-thread-1) Starting child service on route: route1 -> Finally{Processor is null}
18:31:00 DEBUG [or.ap.ca.im.RouteService]] (executor-thread-1) Starting child service on route: route1 -> Processor is null
18:31:00 DEBUG [or.ap.ca.co.di.DirectConsumer]] (executor-thread-1) Starting consumer: Consumer[direct://getCurrentWeatherData]
18:31:00 INFO  [io.qu.ca.co.ru.su.FastCamelContext]] (executor-thread-1) Route: route1 started and consuming from: direct://getCurrentWeatherData
18:31:00 DEBUG [or.ap.ca.co.di.DirectProducer]] (executor-thread-1) Starting producer: Producer[direct://getCurrentWeatherData]
18:31:00 DEBUG [or.ap.ca.im.DefaultProducerCache]] (executor-thread-1) >>>> direct://getCurrentWeatherData Exchange[]
18:31:00 DEBUG [or.ap.ca.su.ReactiveHelper]] (executor-thread-1) Queuing reactive work: Step[94FF0145752279E-0000000000000000,DefaultErrorHandler[Log(null)[Trying to connect to the OpenWeatherMap to get current weather data]]]
18:31:00 DEBUG [or.ap.ca.su.ReactiveHelper]] (executor-thread-1) Queuing reactive work: CamelInternalProcessor - UnitOfWork - afterProcess - DefaultErrorHandler[Log(null)[Trying to connect to the OpenWeatherMap to get current weather data]] - 94FF0145752279E-0000000000000000
18:31:00 DEBUG [or.ap.ca.su.ReactiveHelper]] (executor-thread-1) Queuing reactive work: Callback[org.apache.camel.processor.CamelInternalProcessor$$Lambda$607/2089300995@206927ac]
18:31:00 DEBUG [or.ap.ca.su.ReactiveHelper]] (executor-thread-1) Queuing reactive work: Callback[org.apache.camel.processor.Pipeline$$Lambda$610/511449144@3d3b7e7b]
18:31:00 DEBUG [or.ap.ca.su.ReactiveHelper]] (executor-thread-1) Queuing reactive work: Step[94FF0145752279E-0000000000000000,Pipeline[[Channel[Log(null)[Trying to connect to the OpenWeatherMap to get current weather data]], Channel[SetHeader(CamelHttpMethod, GET)], Channel[DelegateSync[org.tenkichannel.weather.api.gateway.routes.openweathermap.QueryRequestProcessor_ClientProxy@343f69b7]], Channel[Log(null)[Headers defined: ${in.headers}]], Channel[SetBody(null)], Channel[Try {Channel[sendTo(https://api.openweathermap.org/data/2.5/weather)]} Catches {[Catch[[class org.apache.camel.CamelException] -> Pipeline[[Channel[Log(null)[Impossible to send message to external Weather API: ${body}]], Channel[SetBody({ 'error' : 'true' })], Channel[Log(null)[Body response from API call ${body}]]]]]]} Finally {Finally{Processor is null}}]]]]
18:31:00 DEBUG [or.ap.ca.su.ReactiveHelper]] (executor-thread-1) Queuing reactive work: Step[94FF0145752279E-0000000000000000,DefaultErrorHandler[SetHeader(CamelHttpMethod, GET)]]
18:31:00 DEBUG [or.ap.ca.su.ReactiveHelper]] (executor-thread-1) Queuing reactive work: CamelInternalProcessor - UnitOfWork - afterProcess - DefaultErrorHandler[SetHeader(CamelHttpMethod, GET)] - 94FF0145752279E-0000000000000000
18:31:00 DEBUG [or.ap.ca.su.ReactiveHelper]] (executor-thread-1) Queuing reactive work: Callback[org.apache.camel.processor.CamelInternalProcessor$$Lambda$607/2089300995@50e2e41c]
18:31:00 DEBUG [or.ap.ca.su.ReactiveHelper]] (executor-thread-1) Queuing reactive work: Callback[org.apache.camel.processor.Pipeline$$Lambda$610/511449144@59936dbc]
18:31:00 DEBUG [or.ap.ca.su.ReactiveHelper]] (executor-thread-1) Queuing reactive work: Step[94FF0145752279E-0000000000000000,Pipeline[[Channel[Log(null)[Trying to connect to the OpenWeatherMap to get current weather data]], Channel[SetHeader(CamelHttpMethod, GET)], Channel[DelegateSync[org.tenkichannel.weather.api.gateway.routes.openweathermap.QueryRequestProcessor_ClientProxy@343f69b7]], Channel[Log(null)[Headers defined: ${in.headers}]], Channel[SetBody(null)], Channel[Try {Channel[sendTo(https://api.openweathermap.org/data/2.5/weather)]} Catches {[Catch[[class org.apache.camel.CamelException] -> Pipeline[[Channel[Log(null)[Impossible to send message to external Weather API: ${body}]], Channel[SetBody({ 'error' : 'true' })], Channel[Log(null)[Body response from API call ${body}]]]]]]} Finally {Finally{Processor is null}}]]]]
18:31:00 DEBUG [or.ap.ca.su.ReactiveHelper]] (executor-thread-1) Queuing reactive work: Step[94FF0145752279E-0000000000000000,DefaultErrorHandler[DelegateSync[org.tenkichannel.weather.api.gateway.routes.openweathermap.QueryRequestProcessor_ClientProxy@343f69b7]]]
18:31:00 DEBUG [or.ap.ca.su.ReactiveHelper]] (executor-thread-1) Queuing reactive work: CamelInternalProcessor - UnitOfWork - afterProcess - DefaultErrorHandler[DelegateSync[org.tenkichannel.weather.api.gateway.routes.openweathermap.QueryRequestProcessor_ClientProxy@343f69b7]] - 94FF0145752279E-0000000000000000
18:31:00 DEBUG [or.ap.ca.su.ReactiveHelper]] (executor-thread-1) Queuing reactive work: Callback[org.apache.camel.processor.CamelInternalProcessor$$Lambda$607/2089300995@d169868]
18:31:00 DEBUG [or.ap.ca.su.ReactiveHelper]] (executor-thread-1) Queuing reactive work: Callback[org.apache.camel.processor.Pipeline$$Lambda$610/511449144@4a934fd2]
18:31:00 DEBUG [or.ap.ca.su.ReactiveHelper]] (executor-thread-1) Queuing reactive work: Step[94FF0145752279E-0000000000000000,Pipeline[[Channel[Log(null)[Trying to connect to the OpenWeatherMap to get current weather data]], Channel[SetHeader(CamelHttpMethod, GET)], Channel[DelegateSync[org.tenkichannel.weather.api.gateway.routes.openweathermap.QueryRequestProcessor_ClientProxy@343f69b7]], Channel[Log(null)[Headers defined: ${in.headers}]], Channel[SetBody(null)], Channel[Try {Channel[sendTo(https://api.openweathermap.org/data/2.5/weather)]} Catches {[Catch[[class org.apache.camel.CamelException] -> Pipeline[[Channel[Log(null)[Impossible to send message to external Weather API: ${body}]], Channel[SetBody({ 'error' : 'true' })], Channel[Log(null)[Body response from API call ${body}]]]]]]} Finally {Finally{Processor is null}}]]]]
18:31:00 DEBUG [or.ap.ca.su.ReactiveHelper]] (executor-thread-1) Queuing reactive work: Step[94FF0145752279E-0000000000000000,DefaultErrorHandler[Log(null)[Headers defined: ${in.headers}]]]
18:31:00 DEBUG [or.ap.ca.su.ReactiveHelper]] (executor-thread-1) Queuing reactive work: CamelInternalProcessor - UnitOfWork - afterProcess - DefaultErrorHandler[Log(null)[Headers defined: ${in.headers}]] - 94FF0145752279E-0000000000000000
18:31:00 DEBUG [or.ap.ca.su.ReactiveHelper]] (executor-thread-1) Queuing reactive work: Callback[org.apache.camel.processor.CamelInternalProcessor$$Lambda$607/2089300995@82f25b1]
18:31:00 DEBUG [or.ap.ca.su.ReactiveHelper]] (executor-thread-1) Queuing reactive work: Callback[org.apache.camel.processor.Pipeline$$Lambda$610/511449144@6a6668a1]
18:31:00 DEBUG [or.ap.ca.su.ReactiveHelper]] (executor-thread-1) Queuing reactive work: Step[94FF0145752279E-0000000000000000,Pipeline[[Channel[Log(null)[Trying to connect to the OpenWeatherMap to get current weather data]], Channel[SetHeader(CamelHttpMethod, GET)], Channel[DelegateSync[org.tenkichannel.weather.api.gateway.routes.openweathermap.QueryRequestProcessor_ClientProxy@343f69b7]], Channel[Log(null)[Headers defined: ${in.headers}]], Channel[SetBody(null)], Channel[Try {Channel[sendTo(https://api.openweathermap.org/data/2.5/weather)]} Catches {[Catch[[class org.apache.camel.CamelException] -> Pipeline[[Channel[Log(null)[Impossible to send message to external Weather API: ${body}]], Channel[SetBody({ 'error' : 'true' })], Channel[Log(null)[Body response from API call ${body}]]]]]]} Finally {Finally{Processor is null}}]]]]
18:31:00 DEBUG [or.ap.ca.su.ReactiveHelper]] (executor-thread-1) Queuing reactive work: Step[94FF0145752279E-0000000000000000,DefaultErrorHandler[SetBody(null)]]
18:31:00 DEBUG [or.ap.ca.su.ReactiveHelper]] (executor-thread-1) Queuing reactive work: CamelInternalProcessor - UnitOfWork - afterProcess - DefaultErrorHandler[SetBody(null)] - 94FF0145752279E-0000000000000000
18:31:00 DEBUG [or.ap.ca.su.ReactiveHelper]] (executor-thread-1) Queuing reactive work: Callback[org.apache.camel.processor.CamelInternalProcessor$$Lambda$607/2089300995@538a685d]
18:31:00 DEBUG [or.ap.ca.su.ReactiveHelper]] (executor-thread-1) Queuing reactive work: Callback[org.apache.camel.processor.Pipeline$$Lambda$610/511449144@3375021]
18:31:00 DEBUG [or.ap.ca.su.ReactiveHelper]] (executor-thread-1) Queuing reactive work: Step[94FF0145752279E-0000000000000000,Pipeline[[Channel[Log(null)[Trying to connect to the OpenWeatherMap to get current weather data]], Channel[SetHeader(CamelHttpMethod, GET)], Channel[DelegateSync[org.tenkichannel.weather.api.gateway.routes.openweathermap.QueryRequestProcessor_ClientProxy@343f69b7]], Channel[Log(null)[Headers defined: ${in.headers}]], Channel[SetBody(null)], Channel[Try {Channel[sendTo(https://api.openweathermap.org/data/2.5/weather)]} Catches {[Catch[[class org.apache.camel.CamelException] -> Pipeline[[Channel[Log(null)[Impossible to send message to external Weather API: ${body}]], Channel[SetBody({ 'error' : 'true' })], Channel[Log(null)[Body response from API call ${body}]]]]]]} Finally {Finally{Processor is null}}]]]]
18:31:00 DEBUG [or.ap.ca.su.ReactiveHelper]] (executor-thread-1) Queuing reactive work: TryState[94FF0145752279E-0000000000000000]
18:31:00 DEBUG [or.ap.ca.su.ReactiveHelper]] (executor-thread-1) Queuing reactive work: CamelInternalProcessor - UnitOfWork - afterProcess - Try {Channel[sendTo(https://api.openweathermap.org/data/2.5/weather)]} Catches {[Catch[[class org.apache.camel.CamelException] -> Pipeline[[Channel[Log(null)[Impossible to send message to external Weather API: ${body}]], Channel[SetBody({ 'error' : 'true' })], Channel[Log(null)[Body response from API call ${body}]]]]]]} Finally {Finally{Processor is null}} - 94FF0145752279E-0000000000000000
18:31:00 DEBUG [or.ap.ca.pr.SendProcessor]] (executor-thread-1) >>>> https://api.openweathermap.org/data/2.5/weather Exchange[94FF0145752279E-0000000000000000]
18:31:00 FINE  [io.ne.ch.DefaultChannelId]] (executor-thread-1) -Dio.netty.processId: 1708 (auto-detected)
18:31:00 FINE  [io.ne.ut.NetUtil]] (executor-thread-1) -Djava.net.preferIPv4Stack: false
18:31:00 FINE  [io.ne.ut.NetUtil]] (executor-thread-1) -Djava.net.preferIPv6Addresses: false
18:31:00 FINE  [io.ne.ut.NetUtil]] (executor-thread-1) Loopback interface: lo (lo, 0:0:0:0:0:0:0:1%lo)
18:31:00 FINE  [io.ne.ut.NetUtil]] (executor-thread-1) /proc/sys/net/core/somaxconn: 128
18:31:00 FINE  [io.ne.ch.DefaultChannelId]] (executor-thread-1) -Dio.netty.machineId: 48:a4:72:ff:fe:1e:bf:bd (auto-detected)
18:31:00 FINE  [io.ne.bu.PooledByteBufAllocator]] (executor-thread-1) -Dio.netty.allocator.numHeapArenas: 16
18:31:00 FINE  [io.ne.bu.PooledByteBufAllocator]] (executor-thread-1) -Dio.netty.allocator.numDirectArenas: 16
18:31:00 FINE  [io.ne.bu.PooledByteBufAllocator]] (executor-thread-1) -Dio.netty.allocator.pageSize: 8192
18:31:00 FINE  [io.ne.bu.PooledByteBufAllocator]] (executor-thread-1) -Dio.netty.allocator.maxOrder: 11
18:31:00 FINE  [io.ne.bu.PooledByteBufAllocator]] (executor-thread-1) -Dio.netty.allocator.chunkSize: 16777216
18:31:00 FINE  [io.ne.bu.PooledByteBufAllocator]] (executor-thread-1) -Dio.netty.allocator.tinyCacheSize: 512
18:31:00 FINE  [io.ne.bu.PooledByteBufAllocator]] (executor-thread-1) -Dio.netty.allocator.smallCacheSize: 256
18:31:00 FINE  [io.ne.bu.PooledByteBufAllocator]] (executor-thread-1) -Dio.netty.allocator.normalCacheSize: 64
18:31:00 FINE  [io.ne.bu.PooledByteBufAllocator]] (executor-thread-1) -Dio.netty.allocator.maxCachedBufferCapacity: 32768
18:31:00 FINE  [io.ne.bu.PooledByteBufAllocator]] (executor-thread-1) -Dio.netty.allocator.cacheTrimInterval: 8192
18:31:00 FINE  [io.ne.bu.PooledByteBufAllocator]] (executor-thread-1) -Dio.netty.allocator.useCacheForAllThreads: true
18:31:00 FINE  [io.ne.bu.PooledByteBufAllocator]] (executor-thread-1) -Dio.netty.allocator.maxCachedByteBuffersPerChunk: 1023
18:31:00 FINE  [io.ne.bu.ByteBufUtil]] (executor-thread-1) -Dio.netty.allocator.type: pooled
18:31:00 FINE  [io.ne.bu.ByteBufUtil]] (executor-thread-1) -Dio.netty.threadLocalDirectBufferSize: 0
18:31:00 FINE  [io.ne.bu.ByteBufUtil]] (executor-thread-1) -Dio.netty.maxThreadLocalCharBufferSize: 16384
18:31:00 DEBUG [or.ap.ca.co.ne.ht.NettyHttpProducer]] (executor-thread-1) Created new TCP client bootstrap connecting to api.openweathermap.org:443 with options: Bootstrap(BootstrapConfig(group: NioEventLoopGroup, channelFactory: ReflectiveChannelFactory(NioSocketChannel.class), options: {SO_KEEPALIVE=true, TCP_NODELAY=true, SO_REUSEADDR=true, CONNECT_TIMEOUT_MILLIS=10000}, handler: org.apache.camel.component.netty4.http.HttpClientInitializerFactory@1e9ae9e8, resolver: io.netty.resolver.DefaultAddressResolverGroup@1c087973))
Using SSLEngineImpl.
18:31:00 DEBUG [or.ap.ca.su.js.BaseSSLContextParameters]] (Camel Thread #1 - NettyClientTCPWorker) SSLEngine [7c018e38[SSLEngine[hostname=null port=-1] SSL_NULL_WITH_NULL_NULL]] created from SSLContext [javax.net.ssl.SSLContext@1a0b120d].
18:31:00 DEBUG [or.ap.ca.su.js.BaseSSLContextParameters]] (Camel Thread #1 - NettyClientTCPWorker) Configuring SSLEngine [7c018e38[SSLEngine[hostname=null port=-1] SSL_NULL_WITH_NULL_NULL]] with 
	 explicitly set cipher suites [null],
	 cipher suite patterns [null],
	 available cipher suites [[TLS_ECDHE_ECDSA_WITH_AES_256_CBC_SHA384, TLS_ECDHE_RSA_WITH_AES_256_CBC_SHA384, TLS_RSA_WITH_AES_256_CBC_SHA256, TLS_DHE_RSA_WITH_AES_256_CBC_SHA256, TLS_ECDHE_ECDSA_WITH_AES_256_CBC_SHA, TLS_ECDHE_RSA_WITH_AES_256_CBC_SHA, TLS_RSA_WITH_AES_256_CBC_SHA, TLS_DHE_RSA_WITH_AES_256_CBC_SHA, TLS_ECDHE_ECDSA_WITH_AES_128_CBC_SHA256, TLS_ECDHE_RSA_WITH_AES_128_CBC_SHA256, TLS_RSA_WITH_AES_128_CBC_SHA256, TLS_DHE_RSA_WITH_AES_128_CBC_SHA256, TLS_ECDHE_ECDSA_WITH_AES_128_CBC_SHA, TLS_ECDHE_RSA_WITH_AES_128_CBC_SHA, TLS_RSA_WITH_AES_128_CBC_SHA, TLS_DHE_RSA_WITH_AES_128_CBC_SHA, TLS_ECDHE_ECDSA_WITH_AES_256_GCM_SHA384, TLS_ECDHE_ECDSA_WITH_AES_128_GCM_SHA256, TLS_ECDHE_RSA_WITH_AES_256_GCM_SHA384, TLS_RSA_WITH_AES_256_GCM_SHA384, TLS_DHE_RSA_WITH_AES_256_GCM_SHA384, TLS_ECDHE_RSA_WITH_AES_128_GCM_SHA256, TLS_RSA_WITH_AES_128_GCM_SHA256, TLS_DHE_RSA_WITH_AES_128_GCM_SHA256, TLS_EMPTY_RENEGOTIATION_INFO_SCSV]],
	 currently enabled cipher suites [[TLS_ECDHE_ECDSA_WITH_AES_256_CBC_SHA384, TLS_ECDHE_RSA_WITH_AES_256_CBC_SHA384, TLS_RSA_WITH_AES_256_CBC_SHA256, TLS_DHE_RSA_WITH_AES_256_CBC_SHA256, TLS_ECDHE_ECDSA_WITH_AES_256_CBC_SHA, TLS_ECDHE_RSA_WITH_AES_256_CBC_SHA, TLS_RSA_WITH_AES_256_CBC_SHA, TLS_DHE_RSA_WITH_AES_256_CBC_SHA, TLS_ECDHE_ECDSA_WITH_AES_128_CBC_SHA256, TLS_ECDHE_RSA_WITH_AES_128_CBC_SHA256, TLS_RSA_WITH_AES_128_CBC_SHA256, TLS_DHE_RSA_WITH_AES_128_CBC_SHA256, TLS_ECDHE_ECDSA_WITH_AES_128_CBC_SHA, TLS_ECDHE_RSA_WITH_AES_128_CBC_SHA, TLS_RSA_WITH_AES_128_CBC_SHA, TLS_DHE_RSA_WITH_AES_128_CBC_SHA, TLS_ECDHE_ECDSA_WITH_AES_256_GCM_SHA384, TLS_ECDHE_ECDSA_WITH_AES_128_GCM_SHA256, TLS_ECDHE_RSA_WITH_AES_256_GCM_SHA384, TLS_RSA_WITH_AES_256_GCM_SHA384, TLS_DHE_RSA_WITH_AES_256_GCM_SHA384, TLS_ECDHE_RSA_WITH_AES_128_GCM_SHA256, TLS_RSA_WITH_AES_128_GCM_SHA256, TLS_DHE_RSA_WITH_AES_128_GCM_SHA256, TLS_EMPTY_RENEGOTIATION_INFO_SCSV]],
	 and default cipher suite patterns [Patterns [includes=[.*], excludes=[.*_NULL_.*, .*_anon_.*, .*_EXPORT_.*, .*_DES_.*]]].
	 Resulting enabled cipher suites are [[TLS_ECDHE_ECDSA_WITH_AES_256_CBC_SHA384, TLS_ECDHE_RSA_WITH_AES_256_CBC_SHA384, TLS_RSA_WITH_AES_256_CBC_SHA256, TLS_DHE_RSA_WITH_AES_256_CBC_SHA256, TLS_ECDHE_ECDSA_WITH_AES_256_CBC_SHA, TLS_ECDHE_RSA_WITH_AES_256_CBC_SHA, TLS_RSA_WITH_AES_256_CBC_SHA, TLS_DHE_RSA_WITH_AES_256_CBC_SHA, TLS_ECDHE_ECDSA_WITH_AES_128_CBC_SHA256, TLS_ECDHE_RSA_WITH_AES_128_CBC_SHA256, TLS_RSA_WITH_AES_128_CBC_SHA256, TLS_DHE_RSA_WITH_AES_128_CBC_SHA256, TLS_ECDHE_ECDSA_WITH_AES_128_CBC_SHA, TLS_ECDHE_RSA_WITH_AES_128_CBC_SHA, TLS_RSA_WITH_AES_128_CBC_SHA, TLS_DHE_RSA_WITH_AES_128_CBC_SHA, TLS_ECDHE_ECDSA_WITH_AES_256_GCM_SHA384, TLS_ECDHE_ECDSA_WITH_AES_128_GCM_SHA256, TLS_ECDHE_RSA_WITH_AES_256_GCM_SHA384, TLS_RSA_WITH_AES_256_GCM_SHA384, TLS_DHE_RSA_WITH_AES_256_GCM_SHA384, TLS_ECDHE_RSA_WITH_AES_128_GCM_SHA256, TLS_RSA_WITH_AES_128_GCM_SHA256, TLS_DHE_RSA_WITH_AES_128_GCM_SHA256, TLS_EMPTY_RENEGOTIATION_INFO_SCSV]].
18:31:00 DEBUG [or.ap.ca.su.ReactiveHelper]] (executor-thread-1) Queuing reactive work: CamelInternalProcessor - UnitOfWork - afterProcess - sendTo(https://api.openweathermap.org/data/2.5/weather) - 94FF0145752279E-0000000000000000
18:31:00 DEBUG [or.ap.ca.su.js.BaseSSLContextParameters]] (Camel Thread #1 - NettyClientTCPWorker) Configuring SSLEngine [7c018e38[SSLEngine[hostname=null port=-1] SSL_NULL_WITH_NULL_NULL]] with 
	 explicitly set protocols [null],
	 protocol patterns [null],
	 available protocols [[SSLv2Hello, TLSv1, TLSv1.1, TLSv1.2]],
	 currently enabled protocols [[SSLv2Hello, TLSv1, TLSv1.1, TLSv1.2]],
	 and default protocol patterns [Patterns [includes=[.*], excludes=[SSL.*]]].
	 Resulting enabled protocols are [[TLSv1, TLSv1.1, TLSv1.2]].
18:31:00 DEBUG [or.ap.ca.co.ne.ht.HttpClientInitializerFactory]] (Camel Thread #1 - NettyClientTCPWorker) Client SSL handler configured and added as an interceptor against the ChannelPipeline: io.netty.handler.ssl.SslHandler@68f5cc4d
18:31:00 DEBUG [or.ap.ca.co.ne.ht.NettyHttpProducer]] (Camel Thread #1 - NettyClientTCPWorker) Creating connector to address: api.openweathermap.org:443
18:31:00 DEBUG [or.ap.ca.co.ne.ht.NettyHttpProducer]] (Camel Thread #1 - NettyClientTCPWorker) Channel: [id: 0x9466989c, L:/192.168.1.171:38938 - R:api.openweathermap.org/82.196.7.246:443] writing body: DefaultFullHttpRequest(decodeResult: success, version: HTTP/1.1, content: UnpooledByteBufAllocator$InstrumentedUnpooledUnsafeHeapByteBuf(ridx: 0, widx: 0, cap: 0))
GET https://api.openweathermap.org/data/2.5/weather?id=2643743&appid=b2d4d4acf951b349ec178c28eb360a65 HTTP/1.1
host: api.openweathermap.org:-1
connection: keep-alive
18:31:00 FINE  [io.ne.ut.Recycler]] (Camel Thread #1 - NettyClientTCPWorker) -Dio.netty.recycler.maxCapacityPerThread: 4096
18:31:00 FINE  [io.ne.ut.Recycler]] (Camel Thread #1 - NettyClientTCPWorker) -Dio.netty.recycler.maxSharedCapacityFactor: 2
18:31:00 FINE  [io.ne.ut.Recycler]] (Camel Thread #1 - NettyClientTCPWorker) -Dio.netty.recycler.linkCapacity: 16
18:31:00 FINE  [io.ne.ut.Recycler]] (Camel Thread #1 - NettyClientTCPWorker) -Dio.netty.recycler.ratio: 8
Allow unsafe renegotiation: false
Allow legacy hello messages: true
Is initial handshake: true
Is secure renegotiation: false
Ignoring unsupported cipher suite: TLS_ECDHE_ECDSA_WITH_AES_256_CBC_SHA384 for TLSv1
Ignoring unsupported cipher suite: TLS_ECDHE_RSA_WITH_AES_256_CBC_SHA384 for TLSv1
Ignoring unsupported cipher suite: TLS_RSA_WITH_AES_256_CBC_SHA256 for TLSv1
Ignoring unsupported cipher suite: TLS_DHE_RSA_WITH_AES_256_CBC_SHA256 for TLSv1
Ignoring unsupported cipher suite: TLS_ECDHE_ECDSA_WITH_AES_256_CBC_SHA384 for TLSv1.1
Ignoring unsupported cipher suite: TLS_ECDHE_RSA_WITH_AES_256_CBC_SHA384 for TLSv1.1
Ignoring unsupported cipher suite: TLS_RSA_WITH_AES_256_CBC_SHA256 for TLSv1.1
Ignoring unsupported cipher suite: TLS_DHE_RSA_WITH_AES_256_CBC_SHA256 for TLSv1.1
%% No cached client session
update handshake state: client_hello[1]
upcoming handshake states: server_hello[2]
*** ClientHello, TLSv1.2
RandomCookie:  GMT: 1542581652 bytes = { 127, 150, 116, 140, 7, 58, 24, 113, 162, 27, 89, 244, 229, 54, 188, 236, 4, 78, 188, 179, 229, 179, 66, 196, 90, 18, 59, 149 }
Session ID:  {}
Cipher Suites: [TLS_ECDHE_ECDSA_WITH_AES_256_CBC_SHA384, TLS_ECDHE_RSA_WITH_AES_256_CBC_SHA384, TLS_RSA_WITH_AES_256_CBC_SHA256, TLS_DHE_RSA_WITH_AES_256_CBC_SHA256, TLS_ECDHE_ECDSA_WITH_AES_256_CBC_SHA, TLS_ECDHE_RSA_WITH_AES_256_CBC_SHA, TLS_RSA_WITH_AES_256_CBC_SHA, TLS_DHE_RSA_WITH_AES_256_CBC_SHA, TLS_ECDHE_ECDSA_WITH_AES_128_CBC_SHA256, TLS_ECDHE_RSA_WITH_AES_128_CBC_SHA256, TLS_RSA_WITH_AES_128_CBC_SHA256, TLS_DHE_RSA_WITH_AES_128_CBC_SHA256, TLS_ECDHE_ECDSA_WITH_AES_128_CBC_SHA, TLS_ECDHE_RSA_WITH_AES_128_CBC_SHA, TLS_RSA_WITH_AES_128_CBC_SHA, TLS_DHE_RSA_WITH_AES_128_CBC_SHA, TLS_ECDHE_ECDSA_WITH_AES_256_GCM_SHA384, TLS_ECDHE_ECDSA_WITH_AES_128_GCM_SHA256, TLS_ECDHE_RSA_WITH_AES_256_GCM_SHA384, TLS_RSA_WITH_AES_256_GCM_SHA384, TLS_DHE_RSA_WITH_AES_256_GCM_SHA384, TLS_ECDHE_RSA_WITH_AES_128_GCM_SHA256, TLS_RSA_WITH_AES_128_GCM_SHA256, TLS_DHE_RSA_WITH_AES_128_GCM_SHA256, TLS_EMPTY_RENEGOTIATION_INFO_SCSV]
Compression Methods:  { 0 }
Extension elliptic_curves, curve names: {secp256r1, secp384r1, secp521r1}
Extension ec_point_formats, formats: [uncompressed]
Extension signature_algorithms, signature_algorithms: SHA512withECDSA, SHA512withRSA, SHA384withECDSA, SHA384withRSA, SHA256withECDSA, SHA256withRSA, SHA224withECDSA, SHA224withRSA, SHA1withECDSA, SHA1withRSA
Extension extended_master_secret
***
[write] MD5 and SHA1 hashes:  len = 143
0000: 01 00 00 8B 03 03 5C F2   EE 94 7F 96 74 8C 07 3A  ......\.....t..:
0010: 18 71 A2 1B 59 F4 E5 36   BC EC 04 4E BC B3 E5 B3  .q..Y..6...N....
0020: 42 C4 5A 12 3B 95 00 00   32 C0 24 C0 28 00 3D 00  B.Z.;...2.$.(.=.
0030: 6B C0 0A C0 14 00 35 00   39 C0 23 C0 27 00 3C 00  k.....5.9.#.'.<.
0040: 67 C0 09 C0 13 00 2F 00   33 C0 2C C0 2B C0 30 00  g...../.3.,.+.0.
0050: 9D 00 9F C0 2F 00 9C 00   9E 00 FF 01 00 00 30 00  ..../.........0.
0060: 0A 00 08 00 06 00 17 00   18 00 19 00 0B 00 02 01  ................
0070: 00 00 0D 00 16 00 14 06   03 06 01 05 03 05 01 04  ................
0080: 03 04 01 03 03 03 01 02   03 02 01 00 17 00 00     ...............
Camel Thread #1 - NettyClientTCPWorker, WRITE: TLSv1.2 Handshake, length = 143
[Raw write]: length = 148
0000: 16 03 03 00 8F 01 00 00   8B 03 03 5C F2 EE 94 7F  ...........\....
0010: 96 74 8C 07 3A 18 71 A2   1B 59 F4 E5 36 BC EC 04  .t..:.q..Y..6...
0020: 4E BC B3 E5 B3 42 C4 5A   12 3B 95 00 00 32 C0 24  N....B.Z.;...2.$
0030: C0 28 00 3D 00 6B C0 0A   C0 14 00 35 00 39 C0 23  .(.=.k.....5.9.#
0040: C0 27 00 3C 00 67 C0 09   C0 13 00 2F 00 33 C0 2C  .'.<.g...../.3.,
0050: C0 2B C0 30 00 9D 00 9F   C0 2F 00 9C 00 9E 00 FF  .+.0...../......
0060: 01 00 00 30 00 0A 00 08   00 06 00 17 00 18 00 19  ...0............
0070: 00 0B 00 02 01 00 00 0D   00 16 00 14 06 03 06 01  ................
0080: 05 03 05 01 04 03 04 01   03 03 03 01 02 03 02 01  ................
0090: 00 17 00 00                                        ....
[Raw read]: length = 5
0000: 16 03 03 00 59                                     ....Y
[Raw read]: length = 89
0000: 02 00 00 55 03 03 48 B3   E0 86 30 61 4B 23 9F 7E  ...U..H...0aK#..
0010: 55 BF 85 B4 94 CF 81 51   0F 9B 7A 9C 24 C1 F5 CA  U......Q..z.$...
0020: E2 52 EA 94 50 B6 20 59   F7 C6 AB DE 3E BD 81 8E  .R..P. Y....>...
0030: F8 51 73 30 1B 42 73 3C   66 AB 06 CD A7 84 C0 1B  .Qs0.Bs<f.......
0040: 38 C4 8F 62 C9 9A 74 C0   30 00 00 0D FF 01 00 01  8..b..t.0.......
0050: 00 00 0B 00 04 03 00 01   02                       .........
Camel Thread #1 - NettyClientTCPWorker, READ: TLSv1.2 Handshake, length = 89
check handshake state: server_hello[2]
*** ServerHello, TLSv1.2
RandomCookie:  GMT: 1202904966 bytes = { 48, 97, 75, 35, 159, 126, 85, 191, 133, 180, 148, 207, 129, 81, 15, 155, 122, 156, 36, 193, 245, 202, 226, 82, 234, 148, 80, 182 }
Session ID:  {89, 247, 198, 171, 222, 62, 189, 129, 142, 248, 81, 115, 48, 27, 66, 115, 60, 102, 171, 6, 205, 167, 132, 192, 27, 56, 196, 143, 98, 201, 154, 116}
Cipher Suite: TLS_ECDHE_RSA_WITH_AES_256_GCM_SHA384
Compression Method: 0
Extension renegotiation_info, renegotiated_connection: <empty>
Extension ec_point_formats, formats: [uncompressed, ansiX962_compressed_prime, ansiX962_compressed_char2]
***
%% Initialized:  [Session-1, TLS_ECDHE_RSA_WITH_AES_256_GCM_SHA384]
** TLS_ECDHE_RSA_WITH_AES_256_GCM_SHA384
update handshake state: server_hello[2]
upcoming handshake states: server certificate[11]
upcoming handshake states: server_key_exchange[12](optional)
upcoming handshake states: certificate_request[13](optional)
upcoming handshake states: server_hello_done[14]
upcoming handshake states: client certificate[11](optional)
upcoming handshake states: client_key_exchange[16]
upcoming handshake states: certificate_verify[15](optional)
upcoming handshake states: client change_cipher_spec[-1]
upcoming handshake states: client finished[20]
upcoming handshake states: server change_cipher_spec[-1]
upcoming handshake states: server finished[20]
[read] MD5 and SHA1 hashes:  len = 89
0000: 02 00 00 55 03 03 48 B3   E0 86 30 61 4B 23 9F 7E  ...U..H...0aK#..
0010: 55 BF 85 B4 94 CF 81 51   0F 9B 7A 9C 24 C1 F5 CA  U......Q..z.$...
0020: E2 52 EA 94 50 B6 20 59   F7 C6 AB DE 3E BD 81 8E  .R..P. Y....>...
0030: F8 51 73 30 1B 42 73 3C   66 AB 06 CD A7 84 C0 1B  .Qs0.Bs<f.......
0040: 38 C4 8F 62 C9 9A 74 C0   30 00 00 0D FF 01 00 01  8..b..t.0.......
0050: 00 00 0B 00 04 03 00 01   02                       .........
[Raw read]: length = 5
0000: 16 03 03 10 FD                                     .....
[Raw read]: length = 4349
0000: 0B 00 10 F9 00 10 F6 00   05 69 30 82 05 65 30 82  .........i0..e0.
0010: 04 4D A0 03 02 01 02 02   11 00 BC EC E6 FD EE 2E  .M..............
0020: 05 D3 46 FE 6C C6 93 30   9E EF 30 0D 06 09 2A 86  ..F.l..0..0...*.
0030: 48 86 F7 0D 01 01 0B 05   00 30 81 90 31 0B 30 09  H........0..1.0.
0040: 06 03 55 04 06 13 02 47   42 31 1B 30 19 06 03 55  ..U....GB1.0...U
0050: 04 08 13 12 47 72 65 61   74 65 72 20 4D 61 6E 63  ....Greater Manc
0060: 68 65 73 74 65 72 31 10   30 0E 06 03 55 04 07 13  hester1.0...U...
0070: 07 53 61 6C 66 6F 72 64   31 1A 30 18 06 03 55 04  .Salford1.0...U.
0080: 0A 13 11 43 4F 4D 4F 44   4F 20 43 41 20 4C 69 6D  ...COMODO CA Lim
0090: 69 74 65 64 31 36 30 34   06 03 55 04 03 13 2D 43  ited1604..U...-C
00A0: 4F 4D 4F 44 4F 20 52 53   41 20 44 6F 6D 61 69 6E  OMODO RSA Domain
00B0: 20 56 61 6C 69 64 61 74   69 6F 6E 20 53 65 63 75   Validation Secu
00C0: 72 65 20 53 65 72 76 65   72 20 43 41 30 1E 17 0D  re Server CA0...
00D0: 31 38 30 33 31 35 30 30   30 30 30 30 5A 17 0D 32  180315000000Z..2
00E0: 30 30 33 32 31 32 33 35   39 35 39 5A 30 62 31 21  00321235959Z0b1!
00F0: 30 1F 06 03 55 04 0B 13   18 44 6F 6D 61 69 6E 20  0...U....Domain 
0100: 43 6F 6E 74 72 6F 6C 20   56 61 6C 69 64 61 74 65  Control Validate
0110: 64 31 1E 30 1C 06 03 55   04 0B 13 15 45 73 73 65  d1.0...U....Esse
0120: 6E 74 69 61 6C 53 53 4C   20 57 69 6C 64 63 61 72  ntialSSL Wildcar
0130: 64 31 1D 30 1B 06 03 55   04 03 0C 14 2A 2E 6F 70  d1.0...U....*.op
0140: 65 6E 77 65 61 74 68 65   72 6D 61 70 2E 6F 72 67  enweathermap.org
0150: 30 82 01 22 30 0D 06 09   2A 86 48 86 F7 0D 01 01  0.."0...*.H.....
0160: 01 05 00 03 82 01 0F 00   30 82 01 0A 02 82 01 01  ........0.......
0170: 00 ED 68 D2 F0 CE CF E4   57 F6 DF 14 53 79 01 0F  ..h.....W...Sy..
0180: A0 0B 69 C0 CB 59 92 F1   C1 B7 4C 82 24 C4 C9 FF  ..i..Y....L.$...
0190: C4 8F 71 E3 C8 32 FF F6   FB 95 5B 22 8C CB ED B9  ..q..2....["....
01A0: BB E1 36 BA A1 11 99 6E   1F 03 B4 FD D7 13 E7 CA  ..6....n........
01B0: E3 68 BE E5 A4 AC 3D 22   5B 2F 8F 1B 84 21 D8 32  .h....="[/...!.2
01C0: 91 40 3C 45 BB 2F 2A C4   F0 E8 45 0F 75 04 AA E9  .@<E./*...E.u...
01D0: 82 90 65 CA 36 AF EC 13   F3 ED 6D 9A 70 27 22 77  ..e.6.....m.p'"w
01E0: DD C8 37 C1 00 1F 91 C9   3C C6 EA D1 66 CE 10 4D  ..7.....<...f..M
01F0: E3 3E 7F 24 C3 FF C7 21   93 F4 09 D4 D7 61 5B E8  .>.$...!.....a[.
0200: 16 C4 57 45 AB A3 0B E4   53 EF 83 94 21 3A 3E 05  ..WE....S...!:>.
0210: 50 AF 8E B3 B4 27 8E 5F   EB 95 5F 63 B9 5D 89 2D  P....'._.._c.].-
0220: 3A E7 F1 72 4B 8C 34 99   34 3D 50 A2 B0 D9 81 89  :..rK.4.4=P.....
0230: 37 CB AC 4F F3 9B E9 09   26 ED 72 75 5B 92 43 9F  7..O....&.ru[.C.
0240: 43 FE 61 97 43 DE 4F E7   57 FB 3F A0 6A F1 EA A0  C.a.C.O.W.?.j...
0250: FB BE B9 62 53 69 14 FA   51 47 82 3C CD 11 66 81  ...bSi..QG.<..f.
0260: 20 9C DD C9 EF 34 57 BF   36 2B 1A 72 93 98 F7 86   ....4W.6+.r....
0270: FD 02 03 01 00 01 A3 82   01 E5 30 82 01 E1 30 1F  ..........0...0.
0280: 06 03 55 1D 23 04 18 30   16 80 14 90 AF 6A 3A 94  ..U.#..0.....j:.
0290: 5A 0B D8 90 EA 12 56 73   DF 43 B4 3A 28 DA E7 30  Z.....Vs.C.:(..0
02A0: 1D 06 03 55 1D 0E 04 16   04 14 D3 B9 6B B2 92 FB  ...U........k...
02B0: FC CE 81 5F A7 58 F6 A2   78 DE 79 C4 FD 5D 30 0E  ..._.X..x.y..]0.
02C0: 06 03 55 1D 0F 01 01 FF   04 04 03 02 05 A0 30 0C  ..U...........0.
02D0: 06 03 55 1D 13 01 01 FF   04 02 30 00 30 1D 06 03  ..U.......0.0...
02E0: 55 1D 25 04 16 30 14 06   08 2B 06 01 05 05 07 03  U.%..0...+......
02F0: 01 06 08 2B 06 01 05 05   07 03 02 30 4F 06 03 55  ...+.......0O..U
0300: 1D 20 04 48 30 46 30 3A   06 0B 2B 06 01 04 01 B2  . .H0F0:..+.....
0310: 31 01 02 02 07 30 2B 30   29 06 08 2B 06 01 05 05  1....0+0)..+....
0320: 07 02 01 16 1D 68 74 74   70 73 3A 2F 2F 73 65 63  .....https://sec
0330: 75 72 65 2E 63 6F 6D 6F   64 6F 2E 63 6F 6D 2F 43  ure.comodo.com/C
0340: 50 53 30 08 06 06 67 81   0C 01 02 01 30 54 06 03  PS0...g.....0T..
0350: 55 1D 1F 04 4D 30 4B 30   49 A0 47 A0 45 86 43 68  U...M0K0I.G.E.Ch
0360: 74 74 70 3A 2F 2F 63 72   6C 2E 63 6F 6D 6F 64 6F  ttp://crl.comodo
0370: 63 61 2E 63 6F 6D 2F 43   4F 4D 4F 44 4F 52 53 41  ca.com/COMODORSA
0380: 44 6F 6D 61 69 6E 56 61   6C 69 64 61 74 69 6F 6E  DomainValidation
0390: 53 65 63 75 72 65 53 65   72 76 65 72 43 41 2E 63  SecureServerCA.c
03A0: 72 6C 30 81 85 06 08 2B   06 01 05 05 07 01 01 04  rl0....+........
03B0: 79 30 77 30 4F 06 08 2B   06 01 05 05 07 30 02 86  y0w0O..+.....0..
03C0: 43 68 74 74 70 3A 2F 2F   63 72 74 2E 63 6F 6D 6F  Chttp://crt.como
03D0: 64 6F 63 61 2E 63 6F 6D   2F 43 4F 4D 4F 44 4F 52  doca.com/COMODOR
03E0: 53 41 44 6F 6D 61 69 6E   56 61 6C 69 64 61 74 69  SADomainValidati
03F0: 6F 6E 53 65 63 75 72 65   53 65 72 76 65 72 43 41  onSecureServerCA
0400: 2E 63 72 74 30 24 06 08   2B 06 01 05 05 07 30 01  .crt0$..+.....0.
0410: 86 18 68 74 74 70 3A 2F   2F 6F 63 73 70 2E 63 6F  ..http://ocsp.co
0420: 6D 6F 64 6F 63 61 2E 63   6F 6D 30 33 06 03 55 1D  modoca.com03..U.
0430: 11 04 2C 30 2A 82 14 2A   2E 6F 70 65 6E 77 65 61  ..,0*..*.openwea
0440: 74 68 65 72 6D 61 70 2E   6F 72 67 82 12 6F 70 65  thermap.org..ope
0450: 6E 77 65 61 74 68 65 72   6D 61 70 2E 6F 72 67 30  nweathermap.org0
0460: 0D 06 09 2A 86 48 86 F7   0D 01 01 0B 05 00 03 82  ...*.H..........
0470: 01 01 00 2E FA EF 47 43   08 51 21 1D 67 F9 85 A3  ......GC.Q!.g...
0480: C1 DE 70 5E 2B 92 14 2F   71 B7 8A 04 93 48 69 92  ..p^+../q....Hi.
0490: 5A 6E 4D 23 ED 04 BB 01   FE A4 32 D1 1B 93 DE 25  ZnM#......2....%
04A0: 66 96 AB 56 6C C0 E6 2F   47 7C 29 F3 60 DE 08 7D  f..Vl../G.).`...
04B0: F4 EC 28 F5 3B 81 71 3E   6E 78 E9 6F 82 2C 69 2B  ..(.;.q>nx.o.,i+
04C0: 5C 2D 5E 32 AF 47 15 7B   3E BB 3C 4D A0 01 59 63  \-^2.G..>.<M..Yc
04D0: 6D 50 A2 46 E2 18 38 99   C9 B3 7B 1D 4B DD B5 86  mP.F..8.....K...
04E0: E4 5B BE 6B 72 B2 14 4E   84 DF 8F FB C4 48 12 AA  .[.kr..N.....H..
04F0: 7E 84 4F C7 66 F1 4B AE   B5 47 1B 8C 96 4A 49 3A  ..O.f.K..G...JI:
0500: 8A 81 40 0F 81 EF 08 CE   3E F6 A6 4B E1 87 81 67  ..@.....>..K...g
0510: 39 E2 E8 25 D1 5D CF E3   0F 81 A4 1E 52 DD FE C4  9..%.]......R...
0520: B1 BA 35 09 65 DA 33 02   85 C3 33 35 C9 3A 0C 0D  ..5.e.3...35.:..
0530: 61 AA 25 A6 7D B8 34 F1   2A 75 1F CC 1B B9 3E 99  a.%...4.*u....>.
0540: 57 94 66 3F DB E0 B2 43   47 AA B8 9A C2 77 27 1D  W.f?...CG....w'.
0550: 0D 4C 21 74 46 23 E6 7F   84 26 38 62 5E 79 B3 98  .L!tF#...&8b^y..
0560: 81 F2 41 7D 98 86 4F A1   55 CE D7 87 34 48 B2 6C  ..A...O.U...4H.l
0570: 38 94 D9 00 06 0C 30 82   06 08 30 82 03 F0 A0 03  8.....0...0.....
0580: 02 01 02 02 10 2B 2E 6E   EA D9 75 36 6C 14 8A 6E  .....+.n..u6l..n
0590: DB A3 7C 8C 07 30 0D 06   09 2A 86 48 86 F7 0D 01  .....0...*.H....
05A0: 01 0C 05 00 30 81 85 31   0B 30 09 06 03 55 04 06  ....0..1.0...U..
05B0: 13 02 47 42 31 1B 30 19   06 03 55 04 08 13 12 47  ..GB1.0...U....G
05C0: 72 65 61 74 65 72 20 4D   61 6E 63 68 65 73 74 65  reater Mancheste
05D0: 72 31 10 30 0E 06 03 55   04 07 13 07 53 61 6C 66  r1.0...U....Salf
05E0: 6F 72 64 31 1A 30 18 06   03 55 04 0A 13 11 43 4F  ord1.0...U....CO
05F0: 4D 4F 44 4F 20 43 41 20   4C 69 6D 69 74 65 64 31  MODO CA Limited1
0600: 2B 30 29 06 03 55 04 03   13 22 43 4F 4D 4F 44 4F  +0)..U..."COMODO
0610: 20 52 53 41 20 43 65 72   74 69 66 69 63 61 74 69   RSA Certificati
0620: 6F 6E 20 41 75 74 68 6F   72 69 74 79 30 1E 17 0D  on Authority0...
0630: 31 34 30 32 31 32 30 30   30 30 30 30 5A 17 0D 32  140212000000Z..2
0640: 39 30 32 31 31 32 33 35   39 35 39 5A 30 81 90 31  90211235959Z0..1
0650: 0B 30 09 06 03 55 04 06   13 02 47 42 31 1B 30 19  .0...U....GB1.0.
0660: 06 03 55 04 08 13 12 47   72 65 61 74 65 72 20 4D  ..U....Greater M
0670: 61 6E 63 68 65 73 74 65   72 31 10 30 0E 06 03 55  anchester1.0...U
0680: 04 07 13 07 53 61 6C 66   6F 72 64 31 1A 30 18 06  ....Salford1.0..
0690: 03 55 04 0A 13 11 43 4F   4D 4F 44 4F 20 43 41 20  .U....COMODO CA 
06A0: 4C 69 6D 69 74 65 64 31   36 30 34 06 03 55 04 03  Limited1604..U..
06B0: 13 2D 43 4F 4D 4F 44 4F   20 52 53 41 20 44 6F 6D  .-COMODO RSA Dom
06C0: 61 69 6E 20 56 61 6C 69   64 61 74 69 6F 6E 20 53  ain Validation S
06D0: 65 63 75 72 65 20 53 65   72 76 65 72 20 43 41 30  ecure Server CA0
06E0: 82 01 22 30 0D 06 09 2A   86 48 86 F7 0D 01 01 01  .."0...*.H......
06F0: 05 00 03 82 01 0F 00 30   82 01 0A 02 82 01 01 00  .......0........
0700: 8E C2 02 19 E1 A0 59 A4   EB 38 35 8D 2C FD 01 D0  ......Y..85.,...
0710: D3 49 C0 64 C7 0B 62 05   45 16 3A A8 A0 C0 0C 02  .I.d..b.E.:.....
0720: 7F 1D CC DB C4 A1 6D 77   03 A3 0F 86 F9 E3 06 9C  ......mw........
0730: 3E 0B 81 8A 9B 49 1B AD   03 BE FA 4B DB 8C 20 ED  >....I.....K.. .
0740: D5 CE 5E 65 8E 3E 0D AF   4C C2 B0 B7 45 5E 52 2F  ..^e.>..L...E^R/
0750: 34 DE 48 24 64 B4 41 AE   00 97 F7 BE 67 DE 9E D0  4.H$d.A.....g...
0760: 7A A7 53 80 3B 7C AD F5   96 55 6F 97 47 0A 7C 85  z.S.;....Uo.G...
0770: 8B 22 97 8D B3 84 E0 96   57 D0 70 18 60 96 8F EE  ."......W.p.`...
0780: 2D 07 93 9D A1 BA CA D1   CD 7B E9 C4 2A 9A 28 21  -...........*.(!
0790: 91 4D 6F 92 4F 25 A5 F2   7A 35 DD 26 DC 46 A5 D0  .Mo.O%..z5.&.F..
07A0: AC 59 35 8C FF 4E 91 43   50 3F 59 93 1E 6C 51 21  .Y5..N.CP?Y..lQ!
07B0: EE 58 14 AB FE 75 50 78   3E 4C B0 1C 86 13 FA 6B  .X...uPx>L.....k
07C0: 98 BC E0 3B 94 1E 85 52   DC 03 93 24 18 6E CB 27  ...;...R...$.n.'
07D0: 51 45 E6 70 DE 25 43 A4   0D E1 4A A5 ED B6 7E C8  QE.p.%C...J.....
07E0: CD 6D EE 2E 1D 27 73 5D   DC 45 30 80 AA E3 B2 41  .m...'s].E0....A
07F0: 0B AF BD 44 87 DA B9 E5   1B 9D 7F AE E5 85 82 A5  ...D............
0800: 02 03 01 00 01 A3 82 01   65 30 82 01 61 30 1F 06  ........e0..a0..
0810: 03 55 1D 23 04 18 30 16   80 14 BB AF 7E 02 3D FA  .U.#..0.......=.
0820: A6 F1 3C 84 8E AD EE 38   98 EC D9 32 32 D4 30 1D  ..<....8...22.0.
0830: 06 03 55 1D 0E 04 16 04   14 90 AF 6A 3A 94 5A 0B  ..U........j:.Z.
0840: D8 90 EA 12 56 73 DF 43   B4 3A 28 DA E7 30 0E 06  ....Vs.C.:(..0..
0850: 03 55 1D 0F 01 01 FF 04   04 03 02 01 86 30 12 06  .U...........0..
0860: 03 55 1D 13 01 01 FF 04   08 30 06 01 01 FF 02 01  .U.......0......
0870: 00 30 1D 06 03 55 1D 25   04 16 30 14 06 08 2B 06  .0...U.%..0...+.
0880: 01 05 05 07 03 01 06 08   2B 06 01 05 05 07 03 02  ........+.......
0890: 30 1B 06 03 55 1D 20 04   14 30 12 30 06 06 04 55  0...U. ..0.0...U
08A0: 1D 20 00 30 08 06 06 67   81 0C 01 02 01 30 4C 06  . .0...g.....0L.
08B0: 03 55 1D 1F 04 45 30 43   30 41 A0 3F A0 3D 86 3B  .U...E0C0A.?.=.;
08C0: 68 74 74 70 3A 2F 2F 63   72 6C 2E 63 6F 6D 6F 64  http://crl.comod
08D0: 6F 63 61 2E 63 6F 6D 2F   43 4F 4D 4F 44 4F 52 53  oca.com/COMODORS
08E0: 41 43 65 72 74 69 66 69   63 61 74 69 6F 6E 41 75  ACertificationAu
08F0: 74 68 6F 72 69 74 79 2E   63 72 6C 30 71 06 08 2B  thority.crl0q..+
0900: 06 01 05 05 07 01 01 04   65 30 63 30 3B 06 08 2B  ........e0c0;..+
0910: 06 01 05 05 07 30 02 86   2F 68 74 74 70 3A 2F 2F  .....0../http://
0920: 63 72 74 2E 63 6F 6D 6F   64 6F 63 61 2E 63 6F 6D  crt.comodoca.com
0930: 2F 43 4F 4D 4F 44 4F 52   53 41 41 64 64 54 72 75  /COMODORSAAddTru
0940: 73 74 43 41 2E 63 72 74   30 24 06 08 2B 06 01 05  stCA.crt0$..+...
0950: 05 07 30 01 86 18 68 74   74 70 3A 2F 2F 6F 63 73  ..0...http://ocs
0960: 70 2E 63 6F 6D 6F 64 6F   63 61 2E 63 6F 6D 30 0D  p.comodoca.com0.
0970: 06 09 2A 86 48 86 F7 0D   01 01 0C 05 00 03 82 02  ..*.H...........
0980: 01 00 4E 2B 76 4F 92 1C   62 36 89 BA 77 C1 27 05  ..N+vO..b6..w.'.
0990: F4 1C D6 44 9D A9 9A 3E   AA D5 66 66 01 3E EA 49  ...D...>..ff.>.I
09A0: E6 A2 35 BC FA F6 DD 95   8E 99 35 98 0E 36 18 75  ..5.......5..6.u
09B0: B1 DD DD 50 72 7C AE DC   77 88 CE 0F F7 90 20 CA  ...Pr...w..... .
09C0: A3 67 2E 1F 56 7F 7B E1   44 EA 42 95 C4 5D 0D 01  .g..V...D.B..]..
09D0: 50 46 15 F2 81 89 59 6C   8A DD 8C F1 12 A1 8D 3A  PF....Yl.......:
09E0: 42 8A 98 F8 4B 34 7B 27   3B 08 B4 6F 24 3B 72 9D  B...K4.';..o$;r.
09F0: 63 74 58 3C 1A 6C 3F 4F   C7 11 9A C8 A8 F5 B5 37  ctX<.l?O.......7
0A00: EF 10 45 C6 6C D9 E0 5E   95 26 B3 EB AD A3 B9 EE  ..E.l..^.&......
0A10: 7F 0C 9A 66 35 73 32 60   4E E5 DD 8A 61 2C 6E 52  ...f5s2`N...a,nR
0A20: 11 77 68 96 D3 18 75 51   15 00 1B 74 88 DD E1 C7  .wh...uQ...t....
0A30: 38 04 43 28 E9 16 FD D9   05 D4 5D 47 27 60 D6 FB  8.C(......]G'`..
0A40: 38 3B 6C 72 A2 94 F8 42   1A DF ED 6F 06 8C 45 C2  8;lr...B...o..E.
0A50: 06 00 AA E4 E8 DC D9 B5   E1 73 78 EC F6 23 DC D1  .........sx..#..
0A60: DD 6C 8E 1A 8F A5 EA 54   7C 96 B7 C3 FE 55 8E 8D  .l.....T.....U..
0A70: 49 5E FC 64 BB CF 3E BD   96 EB 69 CD BF E0 48 F1  I^.d..>...i...H.
0A80: 62 82 10 E5 0C 46 57 F2   33 DA D0 C8 63 ED C6 1F  b....FW.3...c...
0A90: 94 05 96 4A 1A 91 D1 F7   EB CF 8F 52 AE 0D 08 D9  ...J.......R....
0AA0: 3E A8 A0 51 E9 C1 87 74   D5 C9 F7 74 AB 2E 53 FB  >..Q...t...t..S.
0AB0: BB 7A FB 97 E2 F8 1F 26   8F B3 D2 A0 E0 37 5B 28  .z.....&.....7[(
0AC0: 3B 31 E5 0E 57 2D 5A B8   AD 79 AC 5E 20 66 1A A5  ;1..W-Z..y.^ f..
0AD0: B9 A6 B5 39 C1 F5 98 43   FF EE F9 A7 A7 FD EE CA  ...9...C........
0AE0: 24 3D 80 16 C4 17 8F 8A   C1 60 A1 0C AE 5B 43 47  $=.......`...[CG
0AF0: 91 4B D5 9A 17 5F F9 D4   87 C1 C2 8C B7 E7 E2 0F  .K..._..........
0B00: 30 19 37 86 AC E0 DC 42   03 E6 94 A8 9D AE FD 0F  0.7....B........
0B10: 24 51 94 CE 92 08 D1 FC   50 F0 03 40 7B 88 59 ED  $Q......P..@..Y.
0B20: 0E DD AC D2 77 82 34 DC   06 95 02 D8 90 F9 2D EA  ....w.4.......-.
0B30: 37 D5 1A 60 D0 67 20 D7   D8 42 0B 45 AF 82 68 DE  7..`.g ..B.E..h.
0B40: DD 66 24 37 90 29 94 19   46 19 25 B8 80 D7 CB D4  .f$7.)..F.%.....
0B50: 86 28 6A 44 70 26 23 62   A9 9F 86 6F BF BA 90 70  .(jDp&#b...o...p
0B60: D2 56 77 85 78 EF EA 25   A9 17 CE 50 72 8C 00 3A  .Vw.x..%...Pr..:
0B70: AA E3 DB 63 34 9F F8 06   71 01 E2 82 20 D4 FE 6F  ...c4...q... ..o
0B80: BD B1 00 05 78 30 82 05   74 30 82 04 5C A0 03 02  ....x0..t0..\...
0B90: 01 02 02 10 27 66 EE 56   EB 49 F3 8E AB D7 70 A2  ....'f.V.I....p.
0BA0: FC 84 DE 22 30 0D 06 09   2A 86 48 86 F7 0D 01 01  ..."0...*.H.....
0BB0: 0C 05 00 30 6F 31 0B 30   09 06 03 55 04 06 13 02  ...0o1.0...U....
0BC0: 53 45 31 14 30 12 06 03   55 04 0A 13 0B 41 64 64  SE1.0...U....Add
0BD0: 54 72 75 73 74 20 41 42   31 26 30 24 06 03 55 04  Trust AB1&0$..U.
0BE0: 0B 13 1D 41 64 64 54 72   75 73 74 20 45 78 74 65  ...AddTrust Exte
0BF0: 72 6E 61 6C 20 54 54 50   20 4E 65 74 77 6F 72 6B  rnal TTP Network
0C00: 31 22 30 20 06 03 55 04   03 13 19 41 64 64 54 72  1"0 ..U....AddTr
0C10: 75 73 74 20 45 78 74 65   72 6E 61 6C 20 43 41 20  ust External CA 
0C20: 52 6F 6F 74 30 1E 17 0D   30 30 30 35 33 30 31 30  Root0...00053010
0C30: 34 38 33 38 5A 17 0D 32   30 30 35 33 30 31 30 34  4838Z..200530104
0C40: 38 33 38 5A 30 81 85 31   0B 30 09 06 03 55 04 06  838Z0..1.0...U..
0C50: 13 02 47 42 31 1B 30 19   06 03 55 04 08 13 12 47  ..GB1.0...U....G
0C60: 72 65 61 74 65 72 20 4D   61 6E 63 68 65 73 74 65  reater Mancheste
0C70: 72 31 10 30 0E 06 03 55   04 07 13 07 53 61 6C 66  r1.0...U....Salf
0C80: 6F 72 64 31 1A 30 18 06   03 55 04 0A 13 11 43 4F  ord1.0...U....CO
0C90: 4D 4F 44 4F 20 43 41 20   4C 69 6D 69 74 65 64 31  MODO CA Limited1
0CA0: 2B 30 29 06 03 55 04 03   13 22 43 4F 4D 4F 44 4F  +0)..U..."COMODO
0CB0: 20 52 53 41 20 43 65 72   74 69 66 69 63 61 74 69   RSA Certificati
0CC0: 6F 6E 20 41 75 74 68 6F   72 69 74 79 30 82 02 22  on Authority0.."
0CD0: 30 0D 06 09 2A 86 48 86   F7 0D 01 01 01 05 00 03  0...*.H.........
0CE0: 82 02 0F 00 30 82 02 0A   02 82 02 01 00 91 E8 54  ....0..........T
0CF0: 92 D2 0A 56 B1 AC 0D 24   DD C5 CF 44 67 74 99 2B  ...V...$...Dgt.+
0D00: 37 A3 7D 23 70 00 71 BC   53 DF C4 FA 2A 12 8F 4B  7..#p.q.S...*..K
0D10: 7F 10 56 BD 9F 70 72 B7   61 7F C9 4B 0F 17 A7 3D  ..V..pr.a..K...=
0D20: E3 B0 04 61 EE FF 11 97   C7 F4 86 3E 0A FA 3E 5C  ...a.......>..>\
0D30: F9 93 E6 34 7A D9 14 6B   E7 9C B3 85 A0 82 7A 76  ...4z..k......zv
0D40: AF 71 90 D7 EC FD 0D FA   9C 6C FA DF B0 82 F4 14  .q.......l......
0D50: 7E F9 BE C4 A6 2F 4F 7F   99 7F B5 FC 67 43 72 BD  ...../O.....gCr.
0D60: 0C 00 D6 89 EB 6B 2C D3   ED 8F 98 1C 14 AB 7E E5  .....k,.........
0D70: E3 6E FC D8 A8 E4 92 24   DA 43 6B 62 B8 55 FD EA  .n.....$.Ckb.U..
0D80: C1 BC 6C B6 8B F3 0E 8D   9A E4 9B 6C 69 99 F8 78  ..l........li..x
0D90: 48 30 45 D5 AD E1 0D 3C   45 60 FC 32 96 51 27 BC  H0E....<E`.2.Q'.
0DA0: 67 C3 CA 2E B6 6B EA 46   C7 C7 20 A0 B1 1F 65 DE  g....k.F.. ...e.
0DB0: 48 08 BA A4 4E A9 F2 83   46 37 84 EB E8 CC 81 48  H...N...F7.....H
0DC0: 43 67 4E 72 2A 9B 5C BD   4C 1B 28 8A 5C 22 7B B4  CgNr*.\.L.(.\"..
0DD0: AB 98 D9 EE E0 51 83 C3   09 46 4E 6D 3E 99 FA 95  .....Q...FNm>...
0DE0: 17 DA 7C 33 57 41 3C 8D   51 ED 0B B6 5C AF 2C 63  ...3WA<.Q...\.,c
0DF0: 1A DF 57 C8 3F BC E9 5D   C4 9B AF 45 99 E2 A3 5A  ..W.?..]...E...Z
0E00: 24 B4 BA A9 56 3D CF 6F   AA FF 49 58 BE F0 A8 FF  $...V=.o..IX....
0E10: F4 B8 AD E9 37 FB BA B8   F4 0B 3A F9 E8 43 42 1E  ....7.....:..CB.
0E20: 89 D8 84 CB 13 F1 D9 BB   E1 89 60 B8 8C 28 56 AC  ..........`..(V.
0E30: 14 1D 9C 0A E7 71 EB CF   0E DD 3D A9 96 A1 48 BD  .....q....=...H.
0E40: 3C F7 AF B5 0D 22 4C C0   11 81 EC 56 3B F6 D3 A2  <...."L....V;...
0E50: E2 5B B7 B2 04 22 52 95   80 93 69 E8 8E 4C 65 F1  .[..."R...i..Le.
0E60: 91 03 2D 70 74 02 EA 8B   67 15 29 69 52 02 BB D7  ..-pt...g.)iR...
0E70: DF 50 6A 55 46 BF A0 A3   28 61 7F 70 D0 C3 A2 AA  .PjUF...(a.p....
0E80: 2C 21 AA 47 CE 28 9C 06   45 76 BF 82 18 27 B4 D5  ,!.G.(..Ev...'..
0E90: AE B4 CB 50 E6 6B F4 4C   86 71 30 E9 A6 DF 16 86  ...P.k.L.q0.....
0EA0: E0 D8 FF 40 DD FB D0 42   88 7F A3 33 3A 2E 5C 1E  ...@...B...3:.\.
0EB0: 41 11 81 63 CE 18 71 6B   2B EC A6 8A B7 31 5C 3A  A..c..qk+....1\:
0EC0: 6A 47 E0 C3 79 59 D6 20   1A AF F2 6A 98 AA 72 BC  jG..yY. ...j..r.
0ED0: 57 4A D2 4B 9D BB 10 FC   B0 4C 41 E5 ED 1D 3D 5E  WJ.K.....LA...=^
0EE0: 28 9D 9C CC BF B3 51 DA   A7 47 E5 84 53 02 03 01  (.....Q..G..S...
0EF0: 00 01 A3 81 F4 30 81 F1   30 1F 06 03 55 1D 23 04  .....0..0...U.#.
0F00: 18 30 16 80 14 AD BD 98   7A 34 B4 26 F7 FA C4 26  .0......z4.&...&
0F10: 54 EF 03 BD E0 24 CB 54   1A 30 1D 06 03 55 1D 0E  T....$.T.0...U..
0F20: 04 16 04 14 BB AF 7E 02   3D FA A6 F1 3C 84 8E AD  ........=...<...
0F30: EE 38 98 EC D9 32 32 D4   30 0E 06 03 55 1D 0F 01  .8...22.0...U...
0F40: 01 FF 04 04 03 02 01 86   30 0F 06 03 55 1D 13 01  ........0...U...
0F50: 01 FF 04 05 30 03 01 01   FF 30 11 06 03 55 1D 20  ....0....0...U. 
0F60: 04 0A 30 08 30 06 06 04   55 1D 20 00 30 44 06 03  ..0.0...U. .0D..
0F70: 55 1D 1F 04 3D 30 3B 30   39 A0 37 A0 35 86 33 68  U...=0;09.7.5.3h
0F80: 74 74 70 3A 2F 2F 63 72   6C 2E 75 73 65 72 74 72  ttp://crl.usertr
0F90: 75 73 74 2E 63 6F 6D 2F   41 64 64 54 72 75 73 74  ust.com/AddTrust
0FA0: 45 78 74 65 72 6E 61 6C   43 41 52 6F 6F 74 2E 63  ExternalCARoot.c
0FB0: 72 6C 30 35 06 08 2B 06   01 05 05 07 01 01 04 29  rl05..+........)
0FC0: 30 27 30 25 06 08 2B 06   01 05 05 07 30 01 86 19  0'0%..+.....0...
0FD0: 68 74 74 70 3A 2F 2F 6F   63 73 70 2E 75 73 65 72  http://ocsp.user
0FE0: 74 72 75 73 74 2E 63 6F   6D 30 0D 06 09 2A 86 48  trust.com0...*.H
0FF0: 86 F7 0D 01 01 0C 05 00   03 82 01 01 00 64 BF 83  .............d..
1000: F1 5F 9A 85 D0 CD B8 A1   29 57 0D E8 5A F7 D1 E9  ._......)W..Z...
1010: 3E F2 76 04 6E F1 52 70   BB 1E 3C FF 4D 0D 74 6A  >.v.n.Rp..<.M.tj
1020: CC 81 82 25 D3 C3 A0 2A   5D 4C F5 BA 8B A1 6D C4  ...%...*]L....m.
1030: 54 09 75 C7 E3 27 0E 5D   84 79 37 40 13 77 F5 B4  T.u..'.].y7@.w..
1040: AC 1C D0 3B AB 17 12 D6   EF 34 18 7E 2B E9 79 D3  ...;.....4..+.y.
1050: AB 57 45 0C AF 28 FA D0   DB E5 50 95 88 BB DF 85  .WE..(....P.....
1060: 57 69 7D 92 D8 52 CA 73   81 BF 1C F3 E6 B8 6E 66  Wi...R.s......nf
1070: 11 05 B3 1E 94 2D 7F 91   95 92 59 F1 4C CE A3 91  .....-....Y.L...
1080: 71 4C 7C 47 0C 3B 0B 19   F6 A1 B1 6C 86 3E 5C AA  qL.G.;.....l.>\.
1090: C4 2E 82 CB F9 07 96 BA   48 4D 90 F2 94 C8 A9 73  ........HM.....s
10A0: A2 EB 06 7B 23 9D DE A2   F3 4D 55 9F 7A 61 45 98  ....#....MU.zaE.
10B0: 18 68 C7 5E 40 6B 23 F5   79 7A EF 8C B5 6B 8B B7  .h.^@k#.yz...k..
10C0: 6F 46 F4 7B F1 3D 4B 04   D8 93 80 59 5A E0 41 24  oF...=K....YZ.A$
10D0: 1D B2 8F 15 60 58 47 DB   EF 6E 46 FD 15 F5 D9 5F  ....`XG..nF...._
10E0: 9A B3 DB D8 B8 E4 40 B3   CD 97 39 AE 85 BB 1D 8E  ......@...9.....
10F0: BC DC 87 9B D1 A6 EF F1   3B 6F 10 38 6F           ........;o.8o
Camel Thread #1 - NettyClientTCPWorker, READ: TLSv1.2 Handshake, length = 4349
check handshake state: certificate[11]
update handshake state: certificate[11]
upcoming handshake states: server_key_exchange[12](optional)
upcoming handshake states: certificate_request[13](optional)
upcoming handshake states: server_hello_done[14]
upcoming handshake states: client certificate[11](optional)
upcoming handshake states: client_key_exchange[16]
upcoming handshake states: certificate_verify[15](optional)
upcoming handshake states: client change_cipher_spec[-1]
upcoming handshake states: client finished[20]
upcoming handshake states: server change_cipher_spec[-1]
upcoming handshake states: server finished[20]
*** Certificate chain
chain [0] = [
[
  Version: V3
  Subject: CN=*.openweathermap.org, OU=EssentialSSL Wildcard, OU=Domain Control Validated
  Signature Algorithm: SHA256withRSA, OID = 1.2.840.113549.1.1.11

  Key:  Sun RSA public key, 2048 bits
  modulus: 29970168911450531207537792769160131760639773073657452189955047227643186027818307148440085787627984644037654979519278127983049898279007743856984082249865056949056704088119935243150230221513753121730760120023835886978157545239621888381675398380803345476251957018605893597939900463435115391894947434436671199133212156770742359424835441467406523025279381932413911388882848980123609351582442916200462650029690539550785198074877883230764359333848070128038931526901385700030174900693164133373862793871028056723448163812955106329072561194863924703996216730644665133672862001917854043516625823298741995363030328646407158204157
  public exponent: 65537
  Validity: [From: Wed Mar 14 21:00:00 BRT 2018,
               To: Sat Mar 21 20:59:59 BRT 2020]
  Issuer: CN=COMODO RSA Domain Validation Secure Server CA, O=COMODO CA Limited, L=Salford, ST=Greater Manchester, C=GB
  SerialNumber: [    bcece6fd ee2e05d3 46fe6cc6 93309eef]

Certificate Extensions: 9
[1]: ObjectId: 1.3.6.1.5.5.7.1.1 Criticality=false
AuthorityInfoAccess [
  [
   accessMethod: caIssuers
   accessLocation: URIName: http://crt.comodoca.com/COMODORSADomainValidationSecureServerCA.crt
, 
   accessMethod: ocsp
   accessLocation: URIName: http://ocsp.comodoca.com
]
]

[2]: ObjectId: 2.5.29.35 Criticality=false
AuthorityKeyIdentifier [
KeyIdentifier [
0000: 90 AF 6A 3A 94 5A 0B D8   90 EA 12 56 73 DF 43 B4  ..j:.Z.....Vs.C.
0010: 3A 28 DA E7                                        :(..
]
]

[3]: ObjectId: 2.5.29.19 Criticality=true
BasicConstraints:[
  CA:false
  PathLen: undefined
]

[4]: ObjectId: 2.5.29.31 Criticality=false
CRLDistributionPoints [
  [DistributionPoint:
     [URIName: http://crl.comodoca.com/COMODORSADomainValidationSecureServerCA.crl]
]]

[5]: ObjectId: 2.5.29.32 Criticality=false
CertificatePolicies [
  [CertificatePolicyId: [1.3.6.1.4.1.6449.1.2.2.7]
[PolicyQualifierInfo: [
  qualifierID: 1.3.6.1.5.5.7.2.1
  qualifier: 0000: 16 1D 68 74 74 70 73 3A   2F 2F 73 65 63 75 72 65  ..https://secure
0010: 2E 63 6F 6D 6F 64 6F 2E   63 6F 6D 2F 43 50 53     .comodo.com/CPS

]]  ]
  [CertificatePolicyId: [2.23.140.1.2.1]
[]  ]
]

[6]: ObjectId: 2.5.29.37 Criticality=false
ExtendedKeyUsages [
  serverAuth
  clientAuth
]

[7]: ObjectId: 2.5.29.15 Criticality=true
KeyUsage [
  DigitalSignature
  Key_Encipherment
]

[8]: ObjectId: 2.5.29.17 Criticality=false
SubjectAlternativeName [
  DNSName: *.openweathermap.org
  DNSName: openweathermap.org
]

[9]: ObjectId: 2.5.29.14 Criticality=false
SubjectKeyIdentifier [
KeyIdentifier [
0000: D3 B9 6B B2 92 FB FC CE   81 5F A7 58 F6 A2 78 DE  ..k......_.X..x.
0010: 79 C4 FD 5D                                        y..]
]
]

]
  Algorithm: [SHA256withRSA]
  Signature:
0000: 2E FA EF 47 43 08 51 21   1D 67 F9 85 A3 C1 DE 70  ...GC.Q!.g.....p
0010: 5E 2B 92 14 2F 71 B7 8A   04 93 48 69 92 5A 6E 4D  ^+../q....Hi.ZnM
0020: 23 ED 04 BB 01 FE A4 32   D1 1B 93 DE 25 66 96 AB  #......2....%f..
0030: 56 6C C0 E6 2F 47 7C 29   F3 60 DE 08 7D F4 EC 28  Vl../G.).`.....(
0040: F5 3B 81 71 3E 6E 78 E9   6F 82 2C 69 2B 5C 2D 5E  .;.q>nx.o.,i+\-^
0050: 32 AF 47 15 7B 3E BB 3C   4D A0 01 59 63 6D 50 A2  2.G..>.<M..YcmP.
0060: 46 E2 18 38 99 C9 B3 7B   1D 4B DD B5 86 E4 5B BE  F..8.....K....[.
0070: 6B 72 B2 14 4E 84 DF 8F   FB C4 48 12 AA 7E 84 4F  kr..N.....H....O
0080: C7 66 F1 4B AE B5 47 1B   8C 96 4A 49 3A 8A 81 40  .f.K..G...JI:..@
0090: 0F 81 EF 08 CE 3E F6 A6   4B E1 87 81 67 39 E2 E8  .....>..K...g9..
00A0: 25 D1 5D CF E3 0F 81 A4   1E 52 DD FE C4 B1 BA 35  %.]......R.....5
00B0: 09 65 DA 33 02 85 C3 33   35 C9 3A 0C 0D 61 AA 25  .e.3...35.:..a.%
00C0: A6 7D B8 34 F1 2A 75 1F   CC 1B B9 3E 99 57 94 66  ...4.*u....>.W.f
00D0: 3F DB E0 B2 43 47 AA B8   9A C2 77 27 1D 0D 4C 21  ?...CG....w'..L!
00E0: 74 46 23 E6 7F 84 26 38   62 5E 79 B3 98 81 F2 41  tF#...&8b^y....A
00F0: 7D 98 86 4F A1 55 CE D7   87 34 48 B2 6C 38 94 D9  ...O.U...4H.l8..

]
chain [1] = [
[
  Version: V3
  Subject: CN=COMODO RSA Domain Validation Secure Server CA, O=COMODO CA Limited, L=Salford, ST=Greater Manchester, C=GB
  Signature Algorithm: SHA384withRSA, OID = 1.2.840.113549.1.1.12

  Key:  Sun RSA public key, 2048 bits
  modulus: 18021508317891126045114383893640587389787314988023771299021472384098480478916503597778296613150634219765052113517870635171403307225477983047468706279013651027886500159485348697094115927961850381525182009137128777951162358715158533528593200093291791323275973789174789209802980910482500744419318360338528025872227868058578212418244189425301367382232973595110901594292490129763308095314503250053957090379265992785603931784956681691284995547158646635183735467516188519673313343149548166538558424521681954529559978463371620234598058977077392872218941503229331579208118464720991080636709101634982701306129953489796945248933
  public exponent: 65537
  Validity: [From: Tue Feb 11 22:00:00 BRST 2014,
               To: Sun Feb 11 21:59:59 BRST 2029]
  Issuer: CN=COMODO RSA Certification Authority, O=COMODO CA Limited, L=Salford, ST=Greater Manchester, C=GB
  SerialNumber: [    2b2e6eea d975366c 148a6edb a37c8c07]

Certificate Extensions: 8
[1]: ObjectId: 1.3.6.1.5.5.7.1.1 Criticality=false
AuthorityInfoAccess [
  [
   accessMethod: caIssuers
   accessLocation: URIName: http://crt.comodoca.com/COMODORSAAddTrustCA.crt
, 
   accessMethod: ocsp
   accessLocation: URIName: http://ocsp.comodoca.com
]
]

[2]: ObjectId: 2.5.29.35 Criticality=false
AuthorityKeyIdentifier [
KeyIdentifier [
0000: BB AF 7E 02 3D FA A6 F1   3C 84 8E AD EE 38 98 EC  ....=...<....8..
0010: D9 32 32 D4                                        .22.
]
]

[3]: ObjectId: 2.5.29.19 Criticality=true
BasicConstraints:[
  CA:true
  PathLen:0
]

[4]: ObjectId: 2.5.29.31 Criticality=false
CRLDistributionPoints [
  [DistributionPoint:
     [URIName: http://crl.comodoca.com/COMODORSACertificationAuthority.crl]
]]

[5]: ObjectId: 2.5.29.32 Criticality=false
CertificatePolicies [
  [CertificatePolicyId: [2.5.29.32.0]
[]  ]
  [CertificatePolicyId: [2.23.140.1.2.1]
[]  ]
]

[6]: ObjectId: 2.5.29.37 Criticality=false
ExtendedKeyUsages [
  serverAuth
  clientAuth
]

[7]: ObjectId: 2.5.29.15 Criticality=true
KeyUsage [
  DigitalSignature
  Key_CertSign
  Crl_Sign
]

[8]: ObjectId: 2.5.29.14 Criticality=false
SubjectKeyIdentifier [
KeyIdentifier [
0000: 90 AF 6A 3A 94 5A 0B D8   90 EA 12 56 73 DF 43 B4  ..j:.Z.....Vs.C.
0010: 3A 28 DA E7                                        :(..
]
]

]
  Algorithm: [SHA384withRSA]
  Signature:
0000: 4E 2B 76 4F 92 1C 62 36   89 BA 77 C1 27 05 F4 1C  N+vO..b6..w.'...
0010: D6 44 9D A9 9A 3E AA D5   66 66 01 3E EA 49 E6 A2  .D...>..ff.>.I..
0020: 35 BC FA F6 DD 95 8E 99   35 98 0E 36 18 75 B1 DD  5.......5..6.u..
0030: DD 50 72 7C AE DC 77 88   CE 0F F7 90 20 CA A3 67  .Pr...w..... ..g
0040: 2E 1F 56 7F 7B E1 44 EA   42 95 C4 5D 0D 01 50 46  ..V...D.B..]..PF
0050: 15 F2 81 89 59 6C 8A DD   8C F1 12 A1 8D 3A 42 8A  ....Yl.......:B.
0060: 98 F8 4B 34 7B 27 3B 08   B4 6F 24 3B 72 9D 63 74  ..K4.';..o$;r.ct
0070: 58 3C 1A 6C 3F 4F C7 11   9A C8 A8 F5 B5 37 EF 10  X<.l?O.......7..
0080: 45 C6 6C D9 E0 5E 95 26   B3 EB AD A3 B9 EE 7F 0C  E.l..^.&........
0090: 9A 66 35 73 32 60 4E E5   DD 8A 61 2C 6E 52 11 77  .f5s2`N...a,nR.w
00A0: 68 96 D3 18 75 51 15 00   1B 74 88 DD E1 C7 38 04  h...uQ...t....8.
00B0: 43 28 E9 16 FD D9 05 D4   5D 47 27 60 D6 FB 38 3B  C(......]G'`..8;
00C0: 6C 72 A2 94 F8 42 1A DF   ED 6F 06 8C 45 C2 06 00  lr...B...o..E...
00D0: AA E4 E8 DC D9 B5 E1 73   78 EC F6 23 DC D1 DD 6C  .......sx..#...l
00E0: 8E 1A 8F A5 EA 54 7C 96   B7 C3 FE 55 8E 8D 49 5E  .....T.....U..I^
00F0: FC 64 BB CF 3E BD 96 EB   69 CD BF E0 48 F1 62 82  .d..>...i...H.b.
0100: 10 E5 0C 46 57 F2 33 DA   D0 C8 63 ED C6 1F 94 05  ...FW.3...c.....
0110: 96 4A 1A 91 D1 F7 EB CF   8F 52 AE 0D 08 D9 3E A8  .J.......R....>.
0120: A0 51 E9 C1 87 74 D5 C9   F7 74 AB 2E 53 FB BB 7A  .Q...t...t..S..z
0130: FB 97 E2 F8 1F 26 8F B3   D2 A0 E0 37 5B 28 3B 31  .....&.....7[(;1
0140: E5 0E 57 2D 5A B8 AD 79   AC 5E 20 66 1A A5 B9 A6  ..W-Z..y.^ f....
0150: B5 39 C1 F5 98 43 FF EE   F9 A7 A7 FD EE CA 24 3D  .9...C........$=
0160: 80 16 C4 17 8F 8A C1 60   A1 0C AE 5B 43 47 91 4B  .......`...[CG.K
0170: D5 9A 17 5F F9 D4 87 C1   C2 8C B7 E7 E2 0F 30 19  ..._..........0.
0180: 37 86 AC E0 DC 42 03 E6   94 A8 9D AE FD 0F 24 51  7....B........$Q
0190: 94 CE 92 08 D1 FC 50 F0   03 40 7B 88 59 ED 0E DD  ......P..@..Y...
01A0: AC D2 77 82 34 DC 06 95   02 D8 90 F9 2D EA 37 D5  ..w.4.......-.7.
01B0: 1A 60 D0 67 20 D7 D8 42   0B 45 AF 82 68 DE DD 66  .`.g ..B.E..h..f
01C0: 24 37 90 29 94 19 46 19   25 B8 80 D7 CB D4 86 28  $7.)..F.%......(
01D0: 6A 44 70 26 23 62 A9 9F   86 6F BF BA 90 70 D2 56  jDp&#b...o...p.V
01E0: 77 85 78 EF EA 25 A9 17   CE 50 72 8C 00 3A AA E3  w.x..%...Pr..:..
01F0: DB 63 34 9F F8 06 71 01   E2 82 20 D4 FE 6F BD B1  .c4...q... ..o..

]
chain [2] = [
[
  Version: V3
  Subject: CN=COMODO RSA Certification Authority, O=COMODO CA Limited, L=Salford, ST=Greater Manchester, C=GB
  Signature Algorithm: SHA384withRSA, OID = 1.2.840.113549.1.1.12

  Key:  Sun RSA public key, 4096 bits
  modulus: 595250832037245141724642107398533641144111340640849154810839512193646804439589382557795096048235159392412856809181253983148280442751106836828767077478502910675291715965426418324395462826337195608826159904332409833532414343087397304684051488024083060971973988667565926401713702437407307790551210783180012029671811979458976709742365579736599681150756374332129237698142054260771585540729412505699671993111094681722253786369180597052805125225748672266569013967025850135765598233721214965171040686884703517711864518647963618102322884373894861238464186441528415873877499307554355231373646804211013770034465627350166153734933786011622475019872581027516832913754790596939102532587063612068091625752995700206528059096165261547017202283116886060219954285939324476288744352486373249118864714420341870384243932900936553074796547571643358129426474424573956572670213304441994994142333208766235762328926816055054634905252931414737971249889745696283503174642385591131856834241724878687870772321902051261453524679758731747154638983677185705464969589189761598154153383380395065347776922242683529305823609958629983678843126221186204478003285765580771286537570893899006127941280337699169761047271395591258462580922460487748761665926731923248227868312659
  public exponent: 65537
  Validity: [From: Tue May 30 07:48:38 BRT 2000,
               To: Sat May 30 07:48:38 BRT 2020]
  Issuer: CN=AddTrust External CA Root, OU=AddTrust External TTP Network, O=AddTrust AB, C=SE
  SerialNumber: [    2766ee56 eb49f38e abd770a2 fc84de22]

Certificate Extensions: 7
[1]: ObjectId: 1.3.6.1.5.5.7.1.1 Criticality=false
AuthorityInfoAccess [
  [
   accessMethod: ocsp
   accessLocation: URIName: http://ocsp.usertrust.com
]
]

[2]: ObjectId: 2.5.29.35 Criticality=false
AuthorityKeyIdentifier [
KeyIdentifier [
0000: AD BD 98 7A 34 B4 26 F7   FA C4 26 54 EF 03 BD E0  ...z4.&...&T....
0010: 24 CB 54 1A                                        $.T.
]
]

[3]: ObjectId: 2.5.29.19 Criticality=true
BasicConstraints:[
  CA:true
  PathLen:2147483647
]

[4]: ObjectId: 2.5.29.31 Criticality=false
CRLDistributionPoints [
  [DistributionPoint:
     [URIName: http://crl.usertrust.com/AddTrustExternalCARoot.crl]
]]

[5]: ObjectId: 2.5.29.32 Criticality=false
CertificatePolicies [
  [CertificatePolicyId: [2.5.29.32.0]
[]  ]
]

[6]: ObjectId: 2.5.29.15 Criticality=true
KeyUsage [
  DigitalSignature
  Key_CertSign
  Crl_Sign
]

[7]: ObjectId: 2.5.29.14 Criticality=false
SubjectKeyIdentifier [
KeyIdentifier [
0000: BB AF 7E 02 3D FA A6 F1   3C 84 8E AD EE 38 98 EC  ....=...<....8..
0010: D9 32 32 D4                                        .22.
]
]

]
  Algorithm: [SHA384withRSA]
  Signature:
0000: 64 BF 83 F1 5F 9A 85 D0   CD B8 A1 29 57 0D E8 5A  d..._......)W..Z
0010: F7 D1 E9 3E F2 76 04 6E   F1 52 70 BB 1E 3C FF 4D  ...>.v.n.Rp..<.M
0020: 0D 74 6A CC 81 82 25 D3   C3 A0 2A 5D 4C F5 BA 8B  .tj...%...*]L...
0030: A1 6D C4 54 09 75 C7 E3   27 0E 5D 84 79 37 40 13  .m.T.u..'.].y7@.
0040: 77 F5 B4 AC 1C D0 3B AB   17 12 D6 EF 34 18 7E 2B  w.....;.....4..+
0050: E9 79 D3 AB 57 45 0C AF   28 FA D0 DB E5 50 95 88  .y..WE..(....P..
0060: BB DF 85 57 69 7D 92 D8   52 CA 73 81 BF 1C F3 E6  ...Wi...R.s.....
0070: B8 6E 66 11 05 B3 1E 94   2D 7F 91 95 92 59 F1 4C  .nf.....-....Y.L
0080: CE A3 91 71 4C 7C 47 0C   3B 0B 19 F6 A1 B1 6C 86  ...qL.G.;.....l.
0090: 3E 5C AA C4 2E 82 CB F9   07 96 BA 48 4D 90 F2 94  >\.........HM...
00A0: C8 A9 73 A2 EB 06 7B 23   9D DE A2 F3 4D 55 9F 7A  ..s....#....MU.z
00B0: 61 45 98 18 68 C7 5E 40   6B 23 F5 79 7A EF 8C B5  aE..h.^@k#.yz...
00C0: 6B 8B B7 6F 46 F4 7B F1   3D 4B 04 D8 93 80 59 5A  k..oF...=K....YZ
00D0: E0 41 24 1D B2 8F 15 60   58 47 DB EF 6E 46 FD 15  .A$....`XG..nF..
00E0: F5 D9 5F 9A B3 DB D8 B8   E4 40 B3 CD 97 39 AE 85  .._......@...9..
00F0: BB 1D 8E BC DC 87 9B D1   A6 EF F1 3B 6F 10 38 6F  ...........;o.8o

]
***
Camel Thread #1 - NettyClientTCPWorker, fatal error: 80: problem unwrapping net record
java.lang.RuntimeException: Unexpected error: java.security.InvalidAlgorithmParameterException: the trustAnchors parameter must be non-empty
%% Invalidated:  [Session-1, TLS_ECDHE_RSA_WITH_AES_256_GCM_SHA384]
Camel Thread #1 - NettyClientTCPWorker, SEND TLSv1.2 ALERT:  fatal, description = internal_error
Camel Thread #1 - NettyClientTCPWorker, WRITE: TLSv1.2 Alert, length = 2
[Raw write]: length = 7
0000: 15 03 03 00 02 02 50                               ......P
Camel Thread #1 - NettyClientTCPWorker, called closeOutbound()
Camel Thread #1 - NettyClientTCPWorker, closeOutboundInternal()
Camel Thread #1 - NettyClientTCPWorker, called closeInbound()
Camel Thread #1 - NettyClientTCPWorker, fatal: engine already closed.  Rethrowing javax.net.ssl.SSLException: Inbound closed before receiving peer's close_notify: possible truncation attack?
18:31:01 DEBUG [or.ap.ca.co.ne.NettyProducer]] (Camel Thread #1 - NettyClientTCPWorker) Closing channel as an exception was thrown from Netty: io.netty.handler.codec.DecoderException: java.lang.RuntimeException: Unexpected error: java.security.InvalidAlgorithmParameterException: the trustAnchors parameter must be non-empty
	at io.netty.handler.codec.ByteToMessageDecoder.callDecode(ByteToMessageDecoder.java:472)
	at io.netty.handler.codec.ByteToMessageDecoder.channelRead(ByteToMessageDecoder.java:278)
	at io.netty.channel.AbstractChannelHandlerContext.invokeChannelRead(AbstractChannelHandlerContext.java:359)
	at io.netty.channel.AbstractChannelHandlerContext.invokeChannelRead(AbstractChannelHandlerContext.java:345)
	at io.netty.channel.AbstractChannelHandlerContext.fireChannelRead(AbstractChannelHandlerContext.java:337)
	at io.netty.channel.DefaultChannelPipeline$HeadContext.channelRead(DefaultChannelPipeline.java:1408)
	at io.netty.channel.AbstractChannelHandlerContext.invokeChannelRead(AbstractChannelHandlerContext.java:359)
	at io.netty.channel.AbstractChannelHandlerContext.invokeChannelRead(AbstractChannelHandlerContext.java:345)
	at io.netty.channel.DefaultChannelPipeline.fireChannelRead(DefaultChannelPipeline.java:930)
	at io.netty.channel.nio.AbstractNioByteChannel$NioByteUnsafe.read(AbstractNioByteChannel.java:163)
	at io.netty.channel.nio.NioEventLoop.processSelectedKey(NioEventLoop.java:677)
	at io.netty.channel.nio.NioEventLoop.processSelectedKeysOptimized(NioEventLoop.java:612)
	at io.netty.channel.nio.NioEventLoop.processSelectedKeys(NioEventLoop.java:529)
	at io.netty.channel.nio.NioEventLoop.run(NioEventLoop.java:491)
	at io.netty.util.concurrent.SingleThreadEventExecutor$5.run(SingleThreadEventExecutor.java:905)
	at java.lang.Thread.run(Thread.java:748)
Caused by: java.lang.RuntimeException: Unexpected error: java.security.InvalidAlgorithmParameterException: the trustAnchors parameter must be non-empty
	at sun.security.ssl.Handshaker.checkThrown(Handshaker.java:1519)
	at sun.security.ssl.SSLEngineImpl.checkTaskThrown(SSLEngineImpl.java:528)
	at sun.security.ssl.SSLEngineImpl.readNetRecord(SSLEngineImpl.java:802)
	at sun.security.ssl.SSLEngineImpl.unwrap(SSLEngineImpl.java:766)
	at javax.net.ssl.SSLEngine.unwrap(SSLEngine.java:624)
	at io.netty.handler.ssl.SslHandler$SslEngineType$3.unwrap(SslHandler.java:295)
	at io.netty.handler.ssl.SslHandler.unwrap(SslHandler.java:1330)
	at io.netty.handler.ssl.SslHandler.decodeJdkCompatible(SslHandler.java:1225)
	at io.netty.handler.ssl.SslHandler.decode(SslHandler.java:1272)
	at io.netty.handler.codec.ByteToMessageDecoder.decodeRemovalReentryProtection(ByteToMessageDecoder.java:502)
	at io.netty.handler.codec.ByteToMessageDecoder.callDecode(ByteToMessageDecoder.java:441)
	... 15 more
Caused by: java.lang.RuntimeException: Unexpected error: java.security.InvalidAlgorithmParameterException: the trustAnchors parameter must be non-empty
	at sun.security.validator.PKIXValidator.<init>(PKIXValidator.java:91)
	at sun.security.validator.Validator.getInstance(Validator.java:181)
	at sun.security.ssl.X509TrustManagerImpl.getValidator(X509TrustManagerImpl.java:312)
	at sun.security.ssl.X509TrustManagerImpl.checkTrustedInit(X509TrustManagerImpl.java:171)
	at sun.security.ssl.X509TrustManagerImpl.checkTrusted(X509TrustManagerImpl.java:239)
	at sun.security.ssl.X509TrustManagerImpl.checkServerTrusted(X509TrustManagerImpl.java:136)
	at sun.security.ssl.ClientHandshaker.serverCertificate(ClientHandshaker.java:1626)
	at sun.security.ssl.ClientHandshaker.processMessage(ClientHandshaker.java:223)
	at sun.security.ssl.Handshaker.processLoop(Handshaker.java:1037)
	at sun.security.ssl.Handshaker$1.run(Handshaker.java:970)
	at sun.security.ssl.Handshaker$1.run(Handshaker.java:967)
	at java.security.AccessController.doPrivileged(Native Method)
	at sun.security.ssl.Handshaker$DelegatedTask.run(Handshaker.java:1459)
	at io.netty.handler.ssl.SslHandler.runAllDelegatedTasks(SslHandler.java:1500)
	at io.netty.handler.ssl.SslHandler.runDelegatedTasks(SslHandler.java:1514)
	at io.netty.handler.ssl.SslHandler.unwrap(SslHandler.java:1398)
	... 19 more
Caused by: java.security.InvalidAlgorithmParameterException: the trustAnchors parameter must be non-empty
	at java.security.cert.PKIXParameters.setTrustAnchors(PKIXParameters.java:200)
	at java.security.cert.PKIXParameters.<init>(PKIXParameters.java:120)
	at java.security.cert.PKIXBuilderParameters.<init>(PKIXBuilderParameters.java:104)
	at sun.security.validator.PKIXValidator.<init>(PKIXValidator.java:89)
	... 34 more

Camel Thread #1 - NettyClientTCPWorker, called closeOutbound()
Camel Thread #1 - NettyClientTCPWorker, closeOutboundInternal()
18:31:01 DEBUG [or.ap.ca.su.ReactiveHelper]] (Camel Thread #1 - NettyClientTCPWorker) Queuing reactive work: TryState[94FF0145752279E-0000000000000000]
18:31:01 DEBUG [or.ap.ca.su.ReactiveHelper]] (Camel Thread #1 - NettyClientTCPWorker) Queuing reactive work: TryState[94FF0145752279E-0000000000000000]
18:31:01 DEBUG [or.ap.ca.su.ReactiveHelper]] (Camel Thread #1 - NettyClientTCPWorker) Queuing reactive work: TryState[94FF0145752279E-0000000000000000]
18:31:01 DEBUG [or.ap.ca.su.ReactiveHelper]] (Camel Thread #1 - NettyClientTCPWorker) Queuing reactive work: Callback[org.apache.camel.processor.Pipeline$$Lambda$610/511449144@44642164]
18:31:01 DEBUG [or.ap.ca.su.ReactiveHelper]] (Camel Thread #1 - NettyClientTCPWorker) Queuing reactive work: Step[94FF0145752279E-0000000000000000,Pipeline[[Channel[Log(null)[Trying to connect to the OpenWeatherMap to get current weather data]], Channel[SetHeader(CamelHttpMethod, GET)], Channel[DelegateSync[org.tenkichannel.weather.api.gateway.routes.openweathermap.QueryRequestProcessor_ClientProxy@343f69b7]], Channel[Log(null)[Headers defined: ${in.headers}]], Channel[SetBody(null)], Channel[Try {Channel[sendTo(https://api.openweathermap.org/data/2.5/weather)]} Catches {[Catch[[class org.apache.camel.CamelException] -> Pipeline[[Channel[Log(null)[Impossible to send message to external Weather API: ${body}]], Channel[SetBody({ 'error' : 'true' })], Channel[Log(null)[Body response from API call ${body}]]]]]]} Finally {Finally{Processor is null}}]]]]
18:31:01 DEBUG [or.ap.ca.su.ReactiveHelper]] (Camel Thread #1 - NettyClientTCPWorker) Queuing reactive work: Callback[org.apache.camel.processor.CamelInternalProcessor$$Lambda$607/2089300995@748efa93]
18:31:01 DEBUG [or.ap.ca.su.ReactiveHelper]] (Camel Thread #1 - NettyClientTCPWorker) Queuing reactive work: Callback[org.apache.camel.processor.SharedCamelInternalProcessor$InternalCallback@11049a67]
18:31:01 DEBUG [or.ap.ca.su.ReactiveHelper]] (Camel Thread #1 - NettyClientTCPWorker) Queuing reactive work: Callback[org.apache.camel.impl.DefaultAsyncProcessorAwaitManager$$Lambda$604/1392293452@75dc6d52]
Camel Thread #1 - NettyClientTCPWorker, called closeOutbound()
Camel Thread #1 - NettyClientTCPWorker, closeOutboundInternal()
18:31:01 ERROR [io.un.request]] (executor-thread-1) UT005023: Exception handling request to /api/weather/city/2643743: org.jboss.resteasy.spi.UnhandledException: org.apache.camel.CamelExecutionException: Exception occurred during execution on the exchange: Exchange[94FF0145752279E-0000000000000000]
	at org.jboss.resteasy.core.ExceptionHandler.handleApplicationException(ExceptionHandler.java:106)
	at org.jboss.resteasy.core.ExceptionHandler.handleException(ExceptionHandler.java:372)
	at org.jboss.resteasy.core.SynchronousDispatcher.writeException(SynchronousDispatcher.java:209)
	at org.jboss.resteasy.core.SynchronousDispatcher.invoke(SynchronousDispatcher.java:496)
	at org.jboss.resteasy.core.SynchronousDispatcher.lambda$invoke$4(SynchronousDispatcher.java:252)
	at org.jboss.resteasy.core.SynchronousDispatcher.lambda$preprocess$0(SynchronousDispatcher.java:153)
	at org.jboss.resteasy.core.interception.jaxrs.PreMatchContainerRequestContext.filter(PreMatchContainerRequestContext.java:362)
	at org.jboss.resteasy.core.SynchronousDispatcher.preprocess(SynchronousDispatcher.java:156)
	at org.jboss.resteasy.core.SynchronousDispatcher.invoke(SynchronousDispatcher.java:238)
	at org.jboss.resteasy.plugins.server.servlet.ServletContainerDispatcher.service(ServletContainerDispatcher.java:234)
	at io.quarkus.resteasy.runtime.ResteasyFilter$ResteasyResponseWrapper.sendError(ResteasyFilter.java:72)
	at io.undertow.servlet.handlers.DefaultServlet.doGet(DefaultServlet.java:175)
	at javax.servlet.http.HttpServlet.service(HttpServlet.java:687)
	at javax.servlet.http.HttpServlet.service(HttpServlet.java:790)
	at io.undertow.servlet.handlers.ServletHandler.handleRequest(ServletHandler.java:74)
	at io.undertow.servlet.handlers.FilterHandler$FilterChainImpl.doFilter(FilterHandler.java:129)
	at io.quarkus.resteasy.runtime.ResteasyFilter.doFilter(ResteasyFilter.java:43)
	at io.undertow.servlet.core.ManagedFilter.doFilter(ManagedFilter.java:61)
	at io.undertow.servlet.handlers.FilterHandler$FilterChainImpl.doFilter(FilterHandler.java:131)
	at io.undertow.servlet.handlers.FilterHandler.handleRequest(FilterHandler.java:84)
	at io.undertow.servlet.handlers.security.ServletSecurityRoleHandler.handleRequest(ServletSecurityRoleHandler.java:62)
	at io.undertow.servlet.handlers.ServletChain$1.handleRequest(ServletChain.java:68)
	at io.undertow.servlet.handlers.ServletDispatchingHandler.handleRequest(ServletDispatchingHandler.java:36)
	at io.undertow.servlet.handlers.security.SSLInformationAssociationHandler.handleRequest(SSLInformationAssociationHandler.java:132)
	at io.undertow.servlet.handlers.security.ServletAuthenticationCallHandler.handleRequest(ServletAuthenticationCallHandler.java:57)
	at io.undertow.server.handlers.PredicateHandler.handleRequest(PredicateHandler.java:43)
	at io.undertow.security.handlers.AbstractConfidentialityHandler.handleRequest(AbstractConfidentialityHandler.java:46)
	at io.undertow.servlet.handlers.security.ServletConfidentialityConstraintHandler.handleRequest(ServletConfidentialityConstraintHandler.java:64)
	at io.undertow.security.handlers.AuthenticationMechanismsHandler.handleRequest(AuthenticationMechanismsHandler.java:60)
	at io.undertow.servlet.handlers.security.CachedAuthenticatedSessionHandler.handleRequest(CachedAuthenticatedSessionHandler.java:77)
	at io.undertow.security.handlers.AbstractSecurityContextAssociationHandler.handleRequest(AbstractSecurityContextAssociationHandler.java:43)
	at io.undertow.server.handlers.PredicateHandler.handleRequest(PredicateHandler.java:43)
	at io.undertow.server.handlers.PredicateHandler.handleRequest(PredicateHandler.java:43)
	at io.undertow.servlet.handlers.ServletInitialHandler.handleFirstRequest(ServletInitialHandler.java:292)
	at io.undertow.servlet.handlers.ServletInitialHandler.access$100(ServletInitialHandler.java:81)
	at io.undertow.servlet.handlers.ServletInitialHandler$2.call(ServletInitialHandler.java:138)
	at io.undertow.servlet.handlers.ServletInitialHandler$2.call(ServletInitialHandler.java:135)
	at io.undertow.servlet.core.ServletRequestContextThreadSetupAction$1.call(ServletRequestContextThreadSetupAction.java:48)
	at io.undertow.servlet.core.ContextClassLoaderSetupAction$1.call(ContextClassLoaderSetupAction.java:43)
	at io.quarkus.undertow.runtime.UndertowDeploymentTemplate$7$1$1.call(UndertowDeploymentTemplate.java:437)
	at io.undertow.servlet.handlers.ServletInitialHandler.dispatchRequest(ServletInitialHandler.java:272)
	at io.undertow.servlet.handlers.ServletInitialHandler.access$000(ServletInitialHandler.java:81)
	at io.undertow.servlet.handlers.ServletInitialHandler$1.handleRequest(ServletInitialHandler.java:104)
	at io.undertow.server.Connectors.executeRootHandler(Connectors.java:364)
	at io.undertow.server.HttpServerExchange$1.run(HttpServerExchange.java:830)
	at org.jboss.threads.ContextClassLoaderSavingRunnable.run(ContextClassLoaderSavingRunnable.java:35)
	at org.jboss.threads.EnhancedQueueExecutor.safeRun(EnhancedQueueExecutor.java:2011)
	at org.jboss.threads.EnhancedQueueExecutor$ThreadBody.doRunTask(EnhancedQueueExecutor.java:1538)
	at org.jboss.threads.EnhancedQueueExecutor$ThreadBody.run(EnhancedQueueExecutor.java:1395)
	at org.jboss.threads.DelegatingRunnable.run(DelegatingRunnable.java:29)
	at org.jboss.threads.ThreadLocalResettingRunnable.run(ThreadLocalResettingRunnable.java:32)
	at java.lang.Thread.run(Thread.java:748)
	at org.jboss.threads.JBossThread.run(JBossThread.java:479)
Caused by: org.apache.camel.CamelExecutionException: Exception occurred during execution on the exchange: Exchange[94FF0145752279E-0000000000000000]
	at org.apache.camel.CamelExecutionException.wrapCamelExecutionException(CamelExecutionException.java:48)
	at org.apache.camel.support.ExchangeHelper.extractResultBody(ExchangeHelper.java:675)
	at org.apache.camel.impl.DefaultProducerTemplate.extractResultBody(DefaultProducerTemplate.java:511)
	at org.apache.camel.impl.DefaultProducerTemplate.extractResultBody(DefaultProducerTemplate.java:507)
	at org.apache.camel.impl.DefaultProducerTemplate.requestBody(DefaultProducerTemplate.java:348)
	at org.tenkichannel.weather.api.gateway.resources.WeatherResource.getWeatherCondition(WeatherResource.java:27)
	at sun.reflect.NativeMethodAccessorImpl.invoke0(Native Method)
	at sun.reflect.NativeMethodAccessorImpl.invoke(NativeMethodAccessorImpl.java:62)
	at sun.reflect.DelegatingMethodAccessorImpl.invoke(DelegatingMethodAccessorImpl.java:43)
	at java.lang.reflect.Method.invoke(Method.java:498)
	at org.jboss.resteasy.core.MethodInjectorImpl.invoke(MethodInjectorImpl.java:151)
	at org.jboss.resteasy.core.MethodInjectorImpl.lambda$invoke$3(MethodInjectorImpl.java:122)
	at java.util.concurrent.CompletableFuture.uniApply(CompletableFuture.java:602)
	at java.util.concurrent.CompletableFuture.uniApplyStage(CompletableFuture.java:614)
	at java.util.concurrent.CompletableFuture.thenApply(CompletableFuture.java:1983)
	at java.util.concurrent.CompletableFuture.thenApply(CompletableFuture.java:110)
	at org.jboss.resteasy.core.MethodInjectorImpl.invoke(MethodInjectorImpl.java:122)
	at org.jboss.resteasy.core.ResourceMethodInvoker.internalInvokeOnTarget(ResourceMethodInvoker.java:568)
	at org.jboss.resteasy.core.ResourceMethodInvoker.invokeOnTargetAfterFilter(ResourceMethodInvoker.java:442)
	at org.jboss.resteasy.core.ResourceMethodInvoker.lambda$invokeOnTarget$2(ResourceMethodInvoker.java:396)
	at org.jboss.resteasy.core.interception.jaxrs.PreMatchContainerRequestContext.filter(PreMatchContainerRequestContext.java:362)
	at org.jboss.resteasy.core.ResourceMethodInvoker.invokeOnTarget(ResourceMethodInvoker.java:398)
	at org.jboss.resteasy.core.ResourceMethodInvoker.invoke(ResourceMethodInvoker.java:367)
	at org.jboss.resteasy.core.ResourceMethodInvoker.lambda$invoke$1(ResourceMethodInvoker.java:341)
	at java.util.concurrent.CompletableFuture.uniComposeStage(CompletableFuture.java:981)
	at java.util.concurrent.CompletableFuture.thenCompose(CompletableFuture.java:2124)
	at java.util.concurrent.CompletableFuture.thenCompose(CompletableFuture.java:110)
	at org.jboss.resteasy.core.ResourceMethodInvoker.invoke(ResourceMethodInvoker.java:341)
	at org.jboss.resteasy.core.SynchronousDispatcher.invoke(SynchronousDispatcher.java:477)
	... 49 more
Caused by: io.netty.handler.codec.DecoderException: java.lang.RuntimeException: Unexpected error: java.security.InvalidAlgorithmParameterException: the trustAnchors parameter must be non-empty
	at io.netty.handler.codec.ByteToMessageDecoder.callDecode(ByteToMessageDecoder.java:472)
	at io.netty.handler.codec.ByteToMessageDecoder.channelRead(ByteToMessageDecoder.java:278)
	at io.netty.channel.AbstractChannelHandlerContext.invokeChannelRead(AbstractChannelHandlerContext.java:359)
	at io.netty.channel.AbstractChannelHandlerContext.invokeChannelRead(AbstractChannelHandlerContext.java:345)
	at io.netty.channel.AbstractChannelHandlerContext.fireChannelRead(AbstractChannelHandlerContext.java:337)
	at io.netty.channel.DefaultChannelPipeline$HeadContext.channelRead(DefaultChannelPipeline.java:1408)
	at io.netty.channel.AbstractChannelHandlerContext.invokeChannelRead(AbstractChannelHandlerContext.java:359)
	at io.netty.channel.AbstractChannelHandlerContext.invokeChannelRead(AbstractChannelHandlerContext.java:345)
	at io.netty.channel.DefaultChannelPipeline.fireChannelRead(DefaultChannelPipeline.java:930)
	at io.netty.channel.nio.AbstractNioByteChannel$NioByteUnsafe.read(AbstractNioByteChannel.java:163)
	at io.netty.channel.nio.NioEventLoop.processSelectedKey(NioEventLoop.java:677)
	at io.netty.channel.nio.NioEventLoop.processSelectedKeysOptimized(NioEventLoop.java:612)
	at io.netty.channel.nio.NioEventLoop.processSelectedKeys(NioEventLoop.java:529)
	at io.netty.channel.nio.NioEventLoop.run(NioEventLoop.java:491)
	at io.netty.util.concurrent.SingleThreadEventExecutor$5.run(SingleThreadEventExecutor.java:905)
	at java.lang.Thread.run(Thread.java:748)
Caused by: java.lang.RuntimeException: Unexpected error: java.security.InvalidAlgorithmParameterException: the trustAnchors parameter must be non-empty
	at sun.security.ssl.Handshaker.checkThrown(Handshaker.java:1519)
	at sun.security.ssl.SSLEngineImpl.checkTaskThrown(SSLEngineImpl.java:528)
	at sun.security.ssl.SSLEngineImpl.readNetRecord(SSLEngineImpl.java:802)
	at sun.security.ssl.SSLEngineImpl.unwrap(SSLEngineImpl.java:766)
	at javax.net.ssl.SSLEngine.unwrap(SSLEngine.java:624)
	at io.netty.handler.ssl.SslHandler$SslEngineType$3.unwrap(SslHandler.java:295)
	at io.netty.handler.ssl.SslHandler.unwrap(SslHandler.java:1330)
	at io.netty.handler.ssl.SslHandler.decodeJdkCompatible(SslHandler.java:1225)
	at io.netty.handler.ssl.SslHandler.decode(SslHandler.java:1272)
	at io.netty.handler.codec.ByteToMessageDecoder.decodeRemovalReentryProtection(ByteToMessageDecoder.java:502)
	at io.netty.handler.codec.ByteToMessageDecoder.callDecode(ByteToMessageDecoder.java:441)
	... 15 more
Caused by: java.lang.RuntimeException: Unexpected error: java.security.InvalidAlgorithmParameterException: the trustAnchors parameter must be non-empty
	at sun.security.validator.PKIXValidator.<init>(PKIXValidator.java:91)
	at sun.security.validator.Validator.getInstance(Validator.java:181)
	at sun.security.ssl.X509TrustManagerImpl.getValidator(X509TrustManagerImpl.java:312)
	at sun.security.ssl.X509TrustManagerImpl.checkTrustedInit(X509TrustManagerImpl.java:171)
	at sun.security.ssl.X509TrustManagerImpl.checkTrusted(X509TrustManagerImpl.java:239)
	at sun.security.ssl.X509TrustManagerImpl.checkServerTrusted(X509TrustManagerImpl.java:136)
	at sun.security.ssl.ClientHandshaker.serverCertificate(ClientHandshaker.java:1626)
	at sun.security.ssl.ClientHandshaker.processMessage(ClientHandshaker.java:223)
	at sun.security.ssl.Handshaker.processLoop(Handshaker.java:1037)
	at sun.security.ssl.Handshaker$1.run(Handshaker.java:970)
	at sun.security.ssl.Handshaker$1.run(Handshaker.java:967)
	at java.security.AccessController.doPrivileged(Native Method)
	at sun.security.ssl.Handshaker$DelegatedTask.run(Handshaker.java:1459)
	at io.netty.handler.ssl.SslHandler.runAllDelegatedTasks(SslHandler.java:1500)
	at io.netty.handler.ssl.SslHandler.runDelegatedTasks(SslHandler.java:1514)
	at io.netty.handler.ssl.SslHandler.unwrap(SslHandler.java:1398)
	... 19 more
Caused by: java.security.InvalidAlgorithmParameterException: the trustAnchors parameter must be non-empty
	at java.security.cert.PKIXParameters.setTrustAnchors(PKIXParameters.java:200)
	at java.security.cert.PKIXParameters.<init>(PKIXParameters.java:120)
	at java.security.cert.PKIXBuilderParameters.<init>(PKIXBuilderParameters.java:104)
	at sun.security.validator.PKIXValidator.<init>(PKIXValidator.java:89)
	... 34 more

18:31:01 DEBUG [or.ap.ht.wire]] (main)  << "HTTP/1.1 500 Internal Server Error[\r][\n]"
18:31:01 DEBUG [or.ap.ht.wire]] (main)  << "Connection: keep-alive[\r][\n]"
18:31:01 DEBUG [or.ap.ht.wire]] (main)  << "Transfer-Encoding: chunked[\r][\n]"
18:31:01 DEBUG [or.ap.ht.wire]] (main)  << "Content-Type: text/html;charset=UTF-8[\r][\n]"
18:31:01 DEBUG [or.ap.ht.wire]] (main)  << "Date: Sat, 01 Jun 2019 21:31:01 GMT[\r][\n]"
18:31:01 DEBUG [or.ap.ht.wire]] (main)  << "[\r][\n]"
18:31:01 DEBUG [or.ap.ht.im.co.DefaultClientConnection]] (main) Receiving response: HTTP/1.1 500 Internal Server Error
18:31:01 DEBUG [or.ap.ht.headers]] (main) << HTTP/1.1 500 Internal Server Error
18:31:01 DEBUG [or.ap.ht.headers]] (main) << Connection: keep-alive
18:31:01 DEBUG [or.ap.ht.headers]] (main) << Transfer-Encoding: chunked
18:31:01 DEBUG [or.ap.ht.headers]] (main) << Content-Type: text/html;charset=UTF-8
18:31:01 DEBUG [or.ap.ht.headers]] (main) << Date: Sat, 01 Jun 2019 21:31:01 GMT
18:31:01 DEBUG [or.ap.ht.im.cl.DefaultHttpClient]] (main) Connection can be kept alive indefinitely
[ERROR] Tests run: 1, Failures: 1, Errors: 0, Skipped: 0, Time elapsed: 4.813 s <<< FAILURE! - in org.tenkichannel.weather.api.gateway.routes.openweathermap.OpenWeatherMapRouteTest
[ERROR] whenQueryWeatherByCityName  Time elapsed: 1.93 s  <<< FAILURE!
java.lang.AssertionError: 
1 expectation failed.
Expected status code <200> but was <500>.

	at org.tenkichannel.weather.api.gateway.routes.openweathermap.OpenWeatherMapRouteTest.whenQueryWeatherByCityName(OpenWeatherMapRouteTest.java:24)

18:31:01 INFO  [io.qu.ca.co.ru.su.FastCamelContext]] (main) Apache Camel 3.0.0-M2 (CamelContext: camel-1) is shutting down
18:31:01 DEBUG [or.ap.ca.im.DefaultAsyncProcessorAwaitManager]] (main) Shutting down with no inflight threads.
18:31:01 DEBUG [or.ap.ca.im.RouteService]] (main) Stopping services on route: route1
18:31:01 DEBUG [or.ap.ca.im.RouteService]] (main) Shutting down child service on route: route1 -> Consumer[direct://getCurrentWeatherData]
18:31:01 DEBUG [or.ap.ca.co.di.DirectConsumer]] (main) Stopping consumer: Consumer[direct://getCurrentWeatherData]
18:31:01 DEBUG [or.ap.ca.co.ne.ht.NettyHttpProducer]] (main) Stopping producer at address: api.openweathermap.org:443
18:31:01 DEBUG [or.ap.ca.co.ne.ht.NettyHttpProducer]] (main) Stopping producer with channel pool[active=0, idle=0]
18:31:01 DEBUG [or.ap.ca.co.ne.ht.NettyHttpProducer]] (main) Stopping producer: Producer[https://api.openweathermap.org/data/2.5/weather]
18:31:01 DEBUG [or.ap.ca.im.RouteService]] (main) Shutting down child service on route: route1 -> Pipeline[[Channel[Log(null)[Trying to connect to the OpenWeatherMap to get current weather data]], Channel[SetHeader(CamelHttpMethod, GET)], Channel[DelegateSync[org.tenkichannel.weather.api.gateway.routes.openweathermap.QueryRequestProcessor_ClientProxy@343f69b7]], Channel[Log(null)[Headers defined: ${in.headers}]], Channel[SetBody(null)], Channel[Try {Channel[sendTo(https://api.openweathermap.org/data/2.5/weather)]} Catches {[Catch[[class org.apache.camel.CamelException] -> Pipeline[[Channel[Log(null)[Impossible to send message to external Weather API: ${body}]], Channel[SetBody({ 'error' : 'true' })], Channel[Log(null)[Body response from API call ${body}]]]]]]} Finally {Finally{Processor is null}}]]]
18:31:01 DEBUG [or.ap.ca.im.RouteService]] (main) Shutting down child service on route: route1 -> Pipeline[[Channel[Log(null)[Trying to connect to the OpenWeatherMap to get current weather data]], Channel[SetHeader(CamelHttpMethod, GET)], Channel[DelegateSync[org.tenkichannel.weather.api.gateway.routes.openweathermap.QueryRequestProcessor_ClientProxy@343f69b7]], Channel[Log(null)[Headers defined: ${in.headers}]], Channel[SetBody(null)], Channel[Try {Channel[sendTo(https://api.openweathermap.org/data/2.5/weather)]} Catches {[Catch[[class org.apache.camel.CamelException] -> Pipeline[[Channel[Log(null)[Impossible to send message to external Weather API: ${body}]], Channel[SetBody({ 'error' : 'true' })], Channel[Log(null)[Body response from API call ${body}]]]]]]} Finally {Finally{Processor is null}}]]]
18:31:01 DEBUG [or.ap.ca.im.RouteService]] (main) Shutting down child service on route: route1 -> Log(null)[Trying to connect to the OpenWeatherMap to get current weather data]
18:31:01 DEBUG [or.ap.ca.im.RouteService]] (main) Shutting down child service on route: route1 -> Channel[Log(null)[Trying to connect to the OpenWeatherMap to get current weather data]]
18:31:01 DEBUG [or.ap.ca.im.RouteService]] (main) Shutting down child service on route: route1 -> SetHeader(CamelHttpMethod, GET)
18:31:01 DEBUG [or.ap.ca.im.RouteService]] (main) Shutting down child service on route: route1 -> Channel[SetHeader(CamelHttpMethod, GET)]
18:31:01 DEBUG [or.ap.ca.im.RouteService]] (main) Shutting down child service on route: route1 -> DelegateSync[org.tenkichannel.weather.api.gateway.routes.openweathermap.QueryRequestProcessor_ClientProxy@343f69b7]
18:31:01 DEBUG [or.ap.ca.im.RouteService]] (main) Shutting down child service on route: route1 -> Channel[DelegateSync[org.tenkichannel.weather.api.gateway.routes.openweathermap.QueryRequestProcessor_ClientProxy@343f69b7]]
18:31:01 DEBUG [or.ap.ca.im.RouteService]] (main) Shutting down child service on route: route1 -> Log(null)[Headers defined: ${in.headers}]
18:31:01 DEBUG [or.ap.ca.im.RouteService]] (main) Shutting down child service on route: route1 -> Channel[Log(null)[Headers defined: ${in.headers}]]
18:31:01 DEBUG [or.ap.ca.im.RouteService]] (main) Shutting down child service on route: route1 -> SetBody(null)
18:31:01 DEBUG [or.ap.ca.im.RouteService]] (main) Shutting down child service on route: route1 -> Channel[SetBody(null)]
18:31:01 DEBUG [or.ap.ca.im.RouteService]] (main) Shutting down child service on route: route1 -> Try {Channel[sendTo(https://api.openweathermap.org/data/2.5/weather)]} Catches {[Catch[[class org.apache.camel.CamelException] -> Pipeline[[Channel[Log(null)[Impossible to send message to external Weather API: ${body}]], Channel[SetBody({ 'error' : 'true' })], Channel[Log(null)[Body response from API call ${body}]]]]]]} Finally {Finally{Processor is null}}
18:31:01 DEBUG [or.ap.ca.im.RouteService]] (main) Shutting down child service on route: route1 -> Channel[Try {Channel[sendTo(https://api.openweathermap.org/data/2.5/weather)]} Catches {[Catch[[class org.apache.camel.CamelException] -> Pipeline[[Channel[Log(null)[Impossible to send message to external Weather API: ${body}]], Channel[SetBody({ 'error' : 'true' })], Channel[Log(null)[Body response from API call ${body}]]]]]]} Finally {Finally{Processor is null}}]
18:31:01 DEBUG [or.ap.ca.im.RouteService]] (main) Shutting down child service on route: route1 -> sendTo(https://api.openweathermap.org/data/2.5/weather)
18:31:01 DEBUG [or.ap.ca.im.RouteService]] (main) Shutting down child service on route: route1 -> Channel[sendTo(https://api.openweathermap.org/data/2.5/weather)]
18:31:01 DEBUG [or.ap.ca.im.RouteService]] (main) Shutting down child service on route: route1 -> Catch[[class org.apache.camel.CamelException] -> Pipeline[[Channel[Log(null)[Impossible to send message to external Weather API: ${body}]], Channel[SetBody({ 'error' : 'true' })], Channel[Log(null)[Body response from API call ${body}]]]]]
18:31:01 DEBUG [or.ap.ca.im.RouteService]] (main) Shutting down child service on route: route1 -> Pipeline[[Channel[Log(null)[Impossible to send message to external Weather API: ${body}]], Channel[SetBody({ 'error' : 'true' })], Channel[Log(null)[Body response from API call ${body}]]]]
18:31:01 DEBUG [or.ap.ca.im.RouteService]] (main) Shutting down child service on route: route1 -> Log(null)[Impossible to send message to external Weather API: ${body}]
18:31:01 DEBUG [or.ap.ca.im.RouteService]] (main) Shutting down child service on route: route1 -> Channel[Log(null)[Impossible to send message to external Weather API: ${body}]]
18:31:01 DEBUG [or.ap.ca.im.RouteService]] (main) Shutting down child service on route: route1 -> SetBody({ 'error' : 'true' })
18:31:01 DEBUG [or.ap.ca.im.RouteService]] (main) Shutting down child service on route: route1 -> Channel[SetBody({ 'error' : 'true' })]
18:31:01 DEBUG [or.ap.ca.im.RouteService]] (main) Shutting down child service on route: route1 -> Log(null)[Body response from API call ${body}]
18:31:01 DEBUG [or.ap.ca.im.RouteService]] (main) Shutting down child service on route: route1 -> Channel[Log(null)[Body response from API call ${body}]]
18:31:01 DEBUG [or.ap.ca.im.RouteService]] (main) Shutting down child service on route: route1 -> Finally{Processor is null}
18:31:01 DEBUG [or.ap.ca.im.RouteService]] (main) Shutting down child service on route: route1 -> Processor is null
18:31:01 DEBUG [or.ap.ca.im.RouteService]] (main) Shutting down services on route: route1
18:31:01 DEBUG [or.ap.ca.im.DefaultExecutorServiceManager]] (main) Shutdown of ExecutorService: io.netty.util.concurrent.DefaultEventExecutorGroup@32456db0 is shutdown: true and terminated: true took: 0.009 seconds.
18:31:01 DEBUG [or.ap.ca.la.si.SimpleLanguage]] (main) Clearing simple language predicate cache[size=0, hits=0, misses=0, evicted=0]
18:31:01 DEBUG [or.ap.ca.la.si.SimpleLanguage]] (main) Clearing simple language expression cache[size=6, hits=1, misses=6, evicted=0]
18:31:01 DEBUG [or.ap.ca.co.di.DirectProducer]] (main) Stopping producer: Producer[direct://getCurrentWeatherData]
18:31:01 DEBUG [or.ap.ca.im.DefaultInflightRepository]] (main) Shutting down with no inflight exchanges.
18:31:01 DEBUG [or.ap.ca.su.IntrospectionSupport]] (main) Clearing cache[size=11, hits=18, misses=11, evicted=0]
18:31:01 INFO  [io.qu.ca.co.ru.su.FastCamelContext]] (main) Apache Camel 3.0.0-M2 (CamelContext: camel-1) uptime 2.086 seconds
18:31:01 INFO  [io.qu.ca.co.ru.su.FastCamelContext]] (main) Apache Camel 3.0.0-M2 (CamelContext: camel-1) is shutdown in 0.041 seconds
18:31:01 INFO  [io.quarkus]] (main) Quarkus stopped in 0.044s
[INFO] 
[INFO] Results:
[INFO] 
[ERROR] Failures: 
[ERROR]   OpenWeatherMapRouteTest.whenQueryWeatherByCityName:24 1 expectation failed.
Expected status code <200> but was <500>.

[INFO] 
[ERROR] Tests run: 1, Failures: 1, Errors: 0, Skipped: 0
[INFO] 
[INFO] ------------------------------------------------------------------------
[INFO] BUILD FAILURE
[INFO] ------------------------------------------------------------------------
[INFO] Total time:  7.976 s
[INFO] Finished at: 2019-06-01T18:31:01-03:00
[INFO] ------------------------------------------------------------------------
[ERROR] Failed to execute goal org.apache.maven.plugins:maven-surefire-plugin:3.0.0-M3:test (default-test) on project weather-api-gateway: There are test failures.
[ERROR] 
[ERROR] Please refer to /home/ricferna/dev/github.com/ricardozanini/tenkichannel/weather-api-gateway/target/surefire-reports for the individual test results.
[ERROR] Please refer to dump files (if any exist) [date].dump, [date]-jvmRun[N].dump and [date].dumpstream.
[ERROR] -> [Help 1]
[ERROR] 
[ERROR] To see the full stack trace of the errors, re-run Maven with the -e switch.
[ERROR] Re-run Maven using the -X switch to enable full debug logging.
[ERROR] 
[ERROR] For more information about the errors and possible solutions, please read the following articles:
[ERROR] [Help 1] http://cwiki.apache.org/confluence/display/MAVEN/MojoFailureException
